
;CodeVisionAVR C Compiler V3.12 Advanced
;(C) Copyright 1998-2014 Pavel Haiduc, HP InfoTech s.r.l.
;http://www.hpinfotech.com

;Build configuration    : Debug
;Chip type              : ATmega32
;Program type           : Application
;Clock frequency        : 1/001000 MHz
;Memory model           : Small
;Optimize for           : Size
;(s)printf features     : int, width
;(s)scanf features      : int, width
;External RAM size      : 0
;Data Stack size        : 512 byte(s)
;Heap size              : 0 byte(s)
;Promote 'char' to 'int': Yes
;'char' is unsigned     : Yes
;8 bit enums            : Yes
;Global 'const' stored in FLASH: No
;Enhanced function parameter passing: Yes
;Enhanced core instructions: On
;Automatic register allocation for global variables: On
;Smart register allocation: On

	#define _MODEL_SMALL_

	#pragma AVRPART ADMIN PART_NAME ATmega32
	#pragma AVRPART MEMORY PROG_FLASH 32768
	#pragma AVRPART MEMORY EEPROM 1024
	#pragma AVRPART MEMORY INT_SRAM SIZE 2048
	#pragma AVRPART MEMORY INT_SRAM START_ADDR 0x60

	#define CALL_SUPPORTED 1

	.LISTMAC
	.EQU UDRE=0x5
	.EQU RXC=0x7
	.EQU USR=0xB
	.EQU UDR=0xC
	.EQU SPSR=0xE
	.EQU SPDR=0xF
	.EQU EERE=0x0
	.EQU EEWE=0x1
	.EQU EEMWE=0x2
	.EQU EECR=0x1C
	.EQU EEDR=0x1D
	.EQU EEARL=0x1E
	.EQU EEARH=0x1F
	.EQU WDTCR=0x21
	.EQU MCUCR=0x35
	.EQU GICR=0x3B
	.EQU SPL=0x3D
	.EQU SPH=0x3E
	.EQU SREG=0x3F

	.DEF R0X0=R0
	.DEF R0X1=R1
	.DEF R0X2=R2
	.DEF R0X3=R3
	.DEF R0X4=R4
	.DEF R0X5=R5
	.DEF R0X6=R6
	.DEF R0X7=R7
	.DEF R0X8=R8
	.DEF R0X9=R9
	.DEF R0XA=R10
	.DEF R0XB=R11
	.DEF R0XC=R12
	.DEF R0XD=R13
	.DEF R0XE=R14
	.DEF R0XF=R15
	.DEF R0X10=R16
	.DEF R0X11=R17
	.DEF R0X12=R18
	.DEF R0X13=R19
	.DEF R0X14=R20
	.DEF R0X15=R21
	.DEF R0X16=R22
	.DEF R0X17=R23
	.DEF R0X18=R24
	.DEF R0X19=R25
	.DEF R0X1A=R26
	.DEF R0X1B=R27
	.DEF R0X1C=R28
	.DEF R0X1D=R29
	.DEF R0X1E=R30
	.DEF R0X1F=R31

	.EQU __SRAM_START=0x0060
	.EQU __SRAM_END=0x085F
	.EQU __DSTACK_SIZE=0x0200
	.EQU __HEAP_SIZE=0x0000
	.EQU __CLEAR_SRAM_SIZE=__SRAM_END-__SRAM_START+1

	.MACRO __CPD1N
	CPI  R30,LOW(@0)
	LDI  R26,HIGH(@0)
	CPC  R31,R26
	LDI  R26,BYTE3(@0)
	CPC  R22,R26
	LDI  R26,BYTE4(@0)
	CPC  R23,R26
	.ENDM

	.MACRO __CPD2N
	CPI  R26,LOW(@0)
	LDI  R30,HIGH(@0)
	CPC  R27,R30
	LDI  R30,BYTE3(@0)
	CPC  R24,R30
	LDI  R30,BYTE4(@0)
	CPC  R25,R30
	.ENDM

	.MACRO __CPWRR
	CP   R@0,R@2
	CPC  R@1,R@3
	.ENDM

	.MACRO __CPWRN
	CPI  R@0,LOW(@2)
	LDI  R30,HIGH(@2)
	CPC  R@1,R30
	.ENDM

	.MACRO __ADDB1MN
	SUBI R30,LOW(-@0-(@1))
	.ENDM

	.MACRO __ADDB2MN
	SUBI R26,LOW(-@0-(@1))
	.ENDM

	.MACRO __ADDW1MN
	SUBI R30,LOW(-@0-(@1))
	SBCI R31,HIGH(-@0-(@1))
	.ENDM

	.MACRO __ADDW2MN
	SUBI R26,LOW(-@0-(@1))
	SBCI R27,HIGH(-@0-(@1))
	.ENDM

	.MACRO __ADDW1FN
	SUBI R30,LOW(-2*@0-(@1))
	SBCI R31,HIGH(-2*@0-(@1))
	.ENDM

	.MACRO __ADDD1FN
	SUBI R30,LOW(-2*@0-(@1))
	SBCI R31,HIGH(-2*@0-(@1))
	SBCI R22,BYTE3(-2*@0-(@1))
	.ENDM

	.MACRO __ADDD1N
	SUBI R30,LOW(-@0)
	SBCI R31,HIGH(-@0)
	SBCI R22,BYTE3(-@0)
	SBCI R23,BYTE4(-@0)
	.ENDM

	.MACRO __ADDD2N
	SUBI R26,LOW(-@0)
	SBCI R27,HIGH(-@0)
	SBCI R24,BYTE3(-@0)
	SBCI R25,BYTE4(-@0)
	.ENDM

	.MACRO __SUBD1N
	SUBI R30,LOW(@0)
	SBCI R31,HIGH(@0)
	SBCI R22,BYTE3(@0)
	SBCI R23,BYTE4(@0)
	.ENDM

	.MACRO __SUBD2N
	SUBI R26,LOW(@0)
	SBCI R27,HIGH(@0)
	SBCI R24,BYTE3(@0)
	SBCI R25,BYTE4(@0)
	.ENDM

	.MACRO __ANDBMNN
	LDS  R30,@0+(@1)
	ANDI R30,LOW(@2)
	STS  @0+(@1),R30
	.ENDM

	.MACRO __ANDWMNN
	LDS  R30,@0+(@1)
	ANDI R30,LOW(@2)
	STS  @0+(@1),R30
	LDS  R30,@0+(@1)+1
	ANDI R30,HIGH(@2)
	STS  @0+(@1)+1,R30
	.ENDM

	.MACRO __ANDD1N
	ANDI R30,LOW(@0)
	ANDI R31,HIGH(@0)
	ANDI R22,BYTE3(@0)
	ANDI R23,BYTE4(@0)
	.ENDM

	.MACRO __ANDD2N
	ANDI R26,LOW(@0)
	ANDI R27,HIGH(@0)
	ANDI R24,BYTE3(@0)
	ANDI R25,BYTE4(@0)
	.ENDM

	.MACRO __ORBMNN
	LDS  R30,@0+(@1)
	ORI  R30,LOW(@2)
	STS  @0+(@1),R30
	.ENDM

	.MACRO __ORWMNN
	LDS  R30,@0+(@1)
	ORI  R30,LOW(@2)
	STS  @0+(@1),R30
	LDS  R30,@0+(@1)+1
	ORI  R30,HIGH(@2)
	STS  @0+(@1)+1,R30
	.ENDM

	.MACRO __ORD1N
	ORI  R30,LOW(@0)
	ORI  R31,HIGH(@0)
	ORI  R22,BYTE3(@0)
	ORI  R23,BYTE4(@0)
	.ENDM

	.MACRO __ORD2N
	ORI  R26,LOW(@0)
	ORI  R27,HIGH(@0)
	ORI  R24,BYTE3(@0)
	ORI  R25,BYTE4(@0)
	.ENDM

	.MACRO __DELAY_USB
	LDI  R24,LOW(@0)
__DELAY_USB_LOOP:
	DEC  R24
	BRNE __DELAY_USB_LOOP
	.ENDM

	.MACRO __DELAY_USW
	LDI  R24,LOW(@0)
	LDI  R25,HIGH(@0)
__DELAY_USW_LOOP:
	SBIW R24,1
	BRNE __DELAY_USW_LOOP
	.ENDM

	.MACRO __GETD1S
	LDD  R30,Y+@0
	LDD  R31,Y+@0+1
	LDD  R22,Y+@0+2
	LDD  R23,Y+@0+3
	.ENDM

	.MACRO __GETD2S
	LDD  R26,Y+@0
	LDD  R27,Y+@0+1
	LDD  R24,Y+@0+2
	LDD  R25,Y+@0+3
	.ENDM

	.MACRO __PUTD1S
	STD  Y+@0,R30
	STD  Y+@0+1,R31
	STD  Y+@0+2,R22
	STD  Y+@0+3,R23
	.ENDM

	.MACRO __PUTD2S
	STD  Y+@0,R26
	STD  Y+@0+1,R27
	STD  Y+@0+2,R24
	STD  Y+@0+3,R25
	.ENDM

	.MACRO __PUTDZ2
	STD  Z+@0,R26
	STD  Z+@0+1,R27
	STD  Z+@0+2,R24
	STD  Z+@0+3,R25
	.ENDM

	.MACRO __CLRD1S
	STD  Y+@0,R30
	STD  Y+@0+1,R30
	STD  Y+@0+2,R30
	STD  Y+@0+3,R30
	.ENDM

	.MACRO __POINTB1MN
	LDI  R30,LOW(@0+(@1))
	.ENDM

	.MACRO __POINTW1MN
	LDI  R30,LOW(@0+(@1))
	LDI  R31,HIGH(@0+(@1))
	.ENDM

	.MACRO __POINTD1M
	LDI  R30,LOW(@0)
	LDI  R31,HIGH(@0)
	LDI  R22,BYTE3(@0)
	LDI  R23,BYTE4(@0)
	.ENDM

	.MACRO __POINTW1FN
	LDI  R30,LOW(2*@0+(@1))
	LDI  R31,HIGH(2*@0+(@1))
	.ENDM

	.MACRO __POINTD1FN
	LDI  R30,LOW(2*@0+(@1))
	LDI  R31,HIGH(2*@0+(@1))
	LDI  R22,BYTE3(2*@0+(@1))
	LDI  R23,BYTE4(2*@0+(@1))
	.ENDM

	.MACRO __POINTB2MN
	LDI  R26,LOW(@0+(@1))
	.ENDM

	.MACRO __POINTW2MN
	LDI  R26,LOW(@0+(@1))
	LDI  R27,HIGH(@0+(@1))
	.ENDM

	.MACRO __POINTW2FN
	LDI  R26,LOW(2*@0+(@1))
	LDI  R27,HIGH(2*@0+(@1))
	.ENDM

	.MACRO __POINTD2FN
	LDI  R26,LOW(2*@0+(@1))
	LDI  R27,HIGH(2*@0+(@1))
	LDI  R24,BYTE3(2*@0+(@1))
	LDI  R25,BYTE4(2*@0+(@1))
	.ENDM

	.MACRO __POINTBRM
	LDI  R@0,LOW(@1)
	.ENDM

	.MACRO __POINTWRM
	LDI  R@0,LOW(@2)
	LDI  R@1,HIGH(@2)
	.ENDM

	.MACRO __POINTBRMN
	LDI  R@0,LOW(@1+(@2))
	.ENDM

	.MACRO __POINTWRMN
	LDI  R@0,LOW(@2+(@3))
	LDI  R@1,HIGH(@2+(@3))
	.ENDM

	.MACRO __POINTWRFN
	LDI  R@0,LOW(@2*2+(@3))
	LDI  R@1,HIGH(@2*2+(@3))
	.ENDM

	.MACRO __GETD1N
	LDI  R30,LOW(@0)
	LDI  R31,HIGH(@0)
	LDI  R22,BYTE3(@0)
	LDI  R23,BYTE4(@0)
	.ENDM

	.MACRO __GETD2N
	LDI  R26,LOW(@0)
	LDI  R27,HIGH(@0)
	LDI  R24,BYTE3(@0)
	LDI  R25,BYTE4(@0)
	.ENDM

	.MACRO __GETB1MN
	LDS  R30,@0+(@1)
	.ENDM

	.MACRO __GETB1HMN
	LDS  R31,@0+(@1)
	.ENDM

	.MACRO __GETW1MN
	LDS  R30,@0+(@1)
	LDS  R31,@0+(@1)+1
	.ENDM

	.MACRO __GETD1MN
	LDS  R30,@0+(@1)
	LDS  R31,@0+(@1)+1
	LDS  R22,@0+(@1)+2
	LDS  R23,@0+(@1)+3
	.ENDM

	.MACRO __GETBRMN
	LDS  R@0,@1+(@2)
	.ENDM

	.MACRO __GETWRMN
	LDS  R@0,@2+(@3)
	LDS  R@1,@2+(@3)+1
	.ENDM

	.MACRO __GETWRZ
	LDD  R@0,Z+@2
	LDD  R@1,Z+@2+1
	.ENDM

	.MACRO __GETD2Z
	LDD  R26,Z+@0
	LDD  R27,Z+@0+1
	LDD  R24,Z+@0+2
	LDD  R25,Z+@0+3
	.ENDM

	.MACRO __GETB2MN
	LDS  R26,@0+(@1)
	.ENDM

	.MACRO __GETW2MN
	LDS  R26,@0+(@1)
	LDS  R27,@0+(@1)+1
	.ENDM

	.MACRO __GETD2MN
	LDS  R26,@0+(@1)
	LDS  R27,@0+(@1)+1
	LDS  R24,@0+(@1)+2
	LDS  R25,@0+(@1)+3
	.ENDM

	.MACRO __PUTB1MN
	STS  @0+(@1),R30
	.ENDM

	.MACRO __PUTW1MN
	STS  @0+(@1),R30
	STS  @0+(@1)+1,R31
	.ENDM

	.MACRO __PUTD1MN
	STS  @0+(@1),R30
	STS  @0+(@1)+1,R31
	STS  @0+(@1)+2,R22
	STS  @0+(@1)+3,R23
	.ENDM

	.MACRO __PUTB1EN
	LDI  R26,LOW(@0+(@1))
	LDI  R27,HIGH(@0+(@1))
	CALL __EEPROMWRB
	.ENDM

	.MACRO __PUTW1EN
	LDI  R26,LOW(@0+(@1))
	LDI  R27,HIGH(@0+(@1))
	CALL __EEPROMWRW
	.ENDM

	.MACRO __PUTD1EN
	LDI  R26,LOW(@0+(@1))
	LDI  R27,HIGH(@0+(@1))
	CALL __EEPROMWRD
	.ENDM

	.MACRO __PUTBR0MN
	STS  @0+(@1),R0
	.ENDM

	.MACRO __PUTBMRN
	STS  @0+(@1),R@2
	.ENDM

	.MACRO __PUTWMRN
	STS  @0+(@1),R@2
	STS  @0+(@1)+1,R@3
	.ENDM

	.MACRO __PUTBZR
	STD  Z+@1,R@0
	.ENDM

	.MACRO __PUTWZR
	STD  Z+@2,R@0
	STD  Z+@2+1,R@1
	.ENDM

	.MACRO __GETW1R
	MOV  R30,R@0
	MOV  R31,R@1
	.ENDM

	.MACRO __GETW2R
	MOV  R26,R@0
	MOV  R27,R@1
	.ENDM

	.MACRO __GETWRN
	LDI  R@0,LOW(@2)
	LDI  R@1,HIGH(@2)
	.ENDM

	.MACRO __PUTW1R
	MOV  R@0,R30
	MOV  R@1,R31
	.ENDM

	.MACRO __PUTW2R
	MOV  R@0,R26
	MOV  R@1,R27
	.ENDM

	.MACRO __ADDWRN
	SUBI R@0,LOW(-@2)
	SBCI R@1,HIGH(-@2)
	.ENDM

	.MACRO __ADDWRR
	ADD  R@0,R@2
	ADC  R@1,R@3
	.ENDM

	.MACRO __SUBWRN
	SUBI R@0,LOW(@2)
	SBCI R@1,HIGH(@2)
	.ENDM

	.MACRO __SUBWRR
	SUB  R@0,R@2
	SBC  R@1,R@3
	.ENDM

	.MACRO __ANDWRN
	ANDI R@0,LOW(@2)
	ANDI R@1,HIGH(@2)
	.ENDM

	.MACRO __ANDWRR
	AND  R@0,R@2
	AND  R@1,R@3
	.ENDM

	.MACRO __ORWRN
	ORI  R@0,LOW(@2)
	ORI  R@1,HIGH(@2)
	.ENDM

	.MACRO __ORWRR
	OR   R@0,R@2
	OR   R@1,R@3
	.ENDM

	.MACRO __EORWRR
	EOR  R@0,R@2
	EOR  R@1,R@3
	.ENDM

	.MACRO __GETWRS
	LDD  R@0,Y+@2
	LDD  R@1,Y+@2+1
	.ENDM

	.MACRO __PUTBSR
	STD  Y+@1,R@0
	.ENDM

	.MACRO __PUTWSR
	STD  Y+@2,R@0
	STD  Y+@2+1,R@1
	.ENDM

	.MACRO __MOVEWRR
	MOV  R@0,R@2
	MOV  R@1,R@3
	.ENDM

	.MACRO __INWR
	IN   R@0,@2
	IN   R@1,@2+1
	.ENDM

	.MACRO __OUTWR
	OUT  @2+1,R@1
	OUT  @2,R@0
	.ENDM

	.MACRO __CALL1MN
	LDS  R30,@0+(@1)
	LDS  R31,@0+(@1)+1
	ICALL
	.ENDM

	.MACRO __CALL1FN
	LDI  R30,LOW(2*@0+(@1))
	LDI  R31,HIGH(2*@0+(@1))
	CALL __GETW1PF
	ICALL
	.ENDM

	.MACRO __CALL2EN
	PUSH R26
	PUSH R27
	LDI  R26,LOW(@0+(@1))
	LDI  R27,HIGH(@0+(@1))
	CALL __EEPROMRDW
	POP  R27
	POP  R26
	ICALL
	.ENDM

	.MACRO __CALL2EX
	SUBI R26,LOW(-@0)
	SBCI R27,HIGH(-@0)
	CALL __EEPROMRDD
	ICALL
	.ENDM

	.MACRO __GETW1STACK
	IN   R30,SPL
	IN   R31,SPH
	ADIW R30,@0+1
	LD   R0,Z+
	LD   R31,Z
	MOV  R30,R0
	.ENDM

	.MACRO __GETD1STACK
	IN   R30,SPL
	IN   R31,SPH
	ADIW R30,@0+1
	LD   R0,Z+
	LD   R1,Z+
	LD   R22,Z
	MOVW R30,R0
	.ENDM

	.MACRO __NBST
	BST  R@0,@1
	IN   R30,SREG
	LDI  R31,0x40
	EOR  R30,R31
	OUT  SREG,R30
	.ENDM


	.MACRO __PUTB1SN
	LDD  R26,Y+@0
	LDD  R27,Y+@0+1
	SUBI R26,LOW(-@1)
	SBCI R27,HIGH(-@1)
	ST   X,R30
	.ENDM

	.MACRO __PUTW1SN
	LDD  R26,Y+@0
	LDD  R27,Y+@0+1
	SUBI R26,LOW(-@1)
	SBCI R27,HIGH(-@1)
	ST   X+,R30
	ST   X,R31
	.ENDM

	.MACRO __PUTD1SN
	LDD  R26,Y+@0
	LDD  R27,Y+@0+1
	SUBI R26,LOW(-@1)
	SBCI R27,HIGH(-@1)
	CALL __PUTDP1
	.ENDM

	.MACRO __PUTB1SNS
	LDD  R26,Y+@0
	LDD  R27,Y+@0+1
	ADIW R26,@1
	ST   X,R30
	.ENDM

	.MACRO __PUTW1SNS
	LDD  R26,Y+@0
	LDD  R27,Y+@0+1
	ADIW R26,@1
	ST   X+,R30
	ST   X,R31
	.ENDM

	.MACRO __PUTD1SNS
	LDD  R26,Y+@0
	LDD  R27,Y+@0+1
	ADIW R26,@1
	CALL __PUTDP1
	.ENDM

	.MACRO __PUTB1PMN
	LDS  R26,@0
	LDS  R27,@0+1
	SUBI R26,LOW(-@1)
	SBCI R27,HIGH(-@1)
	ST   X,R30
	.ENDM

	.MACRO __PUTW1PMN
	LDS  R26,@0
	LDS  R27,@0+1
	SUBI R26,LOW(-@1)
	SBCI R27,HIGH(-@1)
	ST   X+,R30
	ST   X,R31
	.ENDM

	.MACRO __PUTD1PMN
	LDS  R26,@0
	LDS  R27,@0+1
	SUBI R26,LOW(-@1)
	SBCI R27,HIGH(-@1)
	CALL __PUTDP1
	.ENDM

	.MACRO __PUTB1PMNS
	LDS  R26,@0
	LDS  R27,@0+1
	ADIW R26,@1
	ST   X,R30
	.ENDM

	.MACRO __PUTW1PMNS
	LDS  R26,@0
	LDS  R27,@0+1
	ADIW R26,@1
	ST   X+,R30
	ST   X,R31
	.ENDM

	.MACRO __PUTD1PMNS
	LDS  R26,@0
	LDS  R27,@0+1
	ADIW R26,@1
	CALL __PUTDP1
	.ENDM

	.MACRO __PUTB1RN
	MOVW R26,R@0
	SUBI R26,LOW(-@1)
	SBCI R27,HIGH(-@1)
	ST   X,R30
	.ENDM

	.MACRO __PUTW1RN
	MOVW R26,R@0
	SUBI R26,LOW(-@1)
	SBCI R27,HIGH(-@1)
	ST   X+,R30
	ST   X,R31
	.ENDM

	.MACRO __PUTD1RN
	MOVW R26,R@0
	SUBI R26,LOW(-@1)
	SBCI R27,HIGH(-@1)
	CALL __PUTDP1
	.ENDM

	.MACRO __PUTB1RNS
	MOVW R26,R@0
	ADIW R26,@1
	ST   X,R30
	.ENDM

	.MACRO __PUTW1RNS
	MOVW R26,R@0
	ADIW R26,@1
	ST   X+,R30
	ST   X,R31
	.ENDM

	.MACRO __PUTD1RNS
	MOVW R26,R@0
	ADIW R26,@1
	CALL __PUTDP1
	.ENDM

	.MACRO __PUTB1RON
	MOV  R26,R@0
	MOV  R27,R@1
	SUBI R26,LOW(-@2)
	SBCI R27,HIGH(-@2)
	ST   X,R30
	.ENDM

	.MACRO __PUTW1RON
	MOV  R26,R@0
	MOV  R27,R@1
	SUBI R26,LOW(-@2)
	SBCI R27,HIGH(-@2)
	ST   X+,R30
	ST   X,R31
	.ENDM

	.MACRO __PUTD1RON
	MOV  R26,R@0
	MOV  R27,R@1
	SUBI R26,LOW(-@2)
	SBCI R27,HIGH(-@2)
	CALL __PUTDP1
	.ENDM

	.MACRO __PUTB1RONS
	MOV  R26,R@0
	MOV  R27,R@1
	ADIW R26,@2
	ST   X,R30
	.ENDM

	.MACRO __PUTW1RONS
	MOV  R26,R@0
	MOV  R27,R@1
	ADIW R26,@2
	ST   X+,R30
	ST   X,R31
	.ENDM

	.MACRO __PUTD1RONS
	MOV  R26,R@0
	MOV  R27,R@1
	ADIW R26,@2
	CALL __PUTDP1
	.ENDM


	.MACRO __GETB1SX
	MOVW R30,R28
	SUBI R30,LOW(-@0)
	SBCI R31,HIGH(-@0)
	LD   R30,Z
	.ENDM

	.MACRO __GETB1HSX
	MOVW R30,R28
	SUBI R30,LOW(-@0)
	SBCI R31,HIGH(-@0)
	LD   R31,Z
	.ENDM

	.MACRO __GETW1SX
	MOVW R30,R28
	SUBI R30,LOW(-@0)
	SBCI R31,HIGH(-@0)
	LD   R0,Z+
	LD   R31,Z
	MOV  R30,R0
	.ENDM

	.MACRO __GETD1SX
	MOVW R30,R28
	SUBI R30,LOW(-@0)
	SBCI R31,HIGH(-@0)
	LD   R0,Z+
	LD   R1,Z+
	LD   R22,Z+
	LD   R23,Z
	MOVW R30,R0
	.ENDM

	.MACRO __GETB2SX
	MOVW R26,R28
	SUBI R26,LOW(-@0)
	SBCI R27,HIGH(-@0)
	LD   R26,X
	.ENDM

	.MACRO __GETW2SX
	MOVW R26,R28
	SUBI R26,LOW(-@0)
	SBCI R27,HIGH(-@0)
	LD   R0,X+
	LD   R27,X
	MOV  R26,R0
	.ENDM

	.MACRO __GETD2SX
	MOVW R26,R28
	SUBI R26,LOW(-@0)
	SBCI R27,HIGH(-@0)
	LD   R0,X+
	LD   R1,X+
	LD   R24,X+
	LD   R25,X
	MOVW R26,R0
	.ENDM

	.MACRO __GETBRSX
	MOVW R30,R28
	SUBI R30,LOW(-@1)
	SBCI R31,HIGH(-@1)
	LD   R@0,Z
	.ENDM

	.MACRO __GETWRSX
	MOVW R30,R28
	SUBI R30,LOW(-@2)
	SBCI R31,HIGH(-@2)
	LD   R@0,Z+
	LD   R@1,Z
	.ENDM

	.MACRO __GETBRSX2
	MOVW R26,R28
	SUBI R26,LOW(-@1)
	SBCI R27,HIGH(-@1)
	LD   R@0,X
	.ENDM

	.MACRO __GETWRSX2
	MOVW R26,R28
	SUBI R26,LOW(-@2)
	SBCI R27,HIGH(-@2)
	LD   R@0,X+
	LD   R@1,X
	.ENDM

	.MACRO __LSLW8SX
	MOVW R30,R28
	SUBI R30,LOW(-@0)
	SBCI R31,HIGH(-@0)
	LD   R31,Z
	CLR  R30
	.ENDM

	.MACRO __PUTB1SX
	MOVW R26,R28
	SUBI R26,LOW(-@0)
	SBCI R27,HIGH(-@0)
	ST   X,R30
	.ENDM

	.MACRO __PUTW1SX
	MOVW R26,R28
	SUBI R26,LOW(-@0)
	SBCI R27,HIGH(-@0)
	ST   X+,R30
	ST   X,R31
	.ENDM

	.MACRO __PUTD1SX
	MOVW R26,R28
	SUBI R26,LOW(-@0)
	SBCI R27,HIGH(-@0)
	ST   X+,R30
	ST   X+,R31
	ST   X+,R22
	ST   X,R23
	.ENDM

	.MACRO __CLRW1SX
	MOVW R26,R28
	SUBI R26,LOW(-@0)
	SBCI R27,HIGH(-@0)
	ST   X+,R30
	ST   X,R30
	.ENDM

	.MACRO __CLRD1SX
	MOVW R26,R28
	SUBI R26,LOW(-@0)
	SBCI R27,HIGH(-@0)
	ST   X+,R30
	ST   X+,R30
	ST   X+,R30
	ST   X,R30
	.ENDM

	.MACRO __PUTB2SX
	MOVW R30,R28
	SUBI R30,LOW(-@0)
	SBCI R31,HIGH(-@0)
	ST   Z,R26
	.ENDM

	.MACRO __PUTW2SX
	MOVW R30,R28
	SUBI R30,LOW(-@0)
	SBCI R31,HIGH(-@0)
	ST   Z+,R26
	ST   Z,R27
	.ENDM

	.MACRO __PUTD2SX
	MOVW R30,R28
	SUBI R30,LOW(-@0)
	SBCI R31,HIGH(-@0)
	ST   Z+,R26
	ST   Z+,R27
	ST   Z+,R24
	ST   Z,R25
	.ENDM

	.MACRO __PUTBSRX
	MOVW R30,R28
	SUBI R30,LOW(-@1)
	SBCI R31,HIGH(-@1)
	ST   Z,R@0
	.ENDM

	.MACRO __PUTWSRX
	MOVW R30,R28
	SUBI R30,LOW(-@2)
	SBCI R31,HIGH(-@2)
	ST   Z+,R@0
	ST   Z,R@1
	.ENDM

	.MACRO __PUTB1SNX
	MOVW R26,R28
	SUBI R26,LOW(-@0)
	SBCI R27,HIGH(-@0)
	LD   R0,X+
	LD   R27,X
	MOV  R26,R0
	SUBI R26,LOW(-@1)
	SBCI R27,HIGH(-@1)
	ST   X,R30
	.ENDM

	.MACRO __PUTW1SNX
	MOVW R26,R28
	SUBI R26,LOW(-@0)
	SBCI R27,HIGH(-@0)
	LD   R0,X+
	LD   R27,X
	MOV  R26,R0
	SUBI R26,LOW(-@1)
	SBCI R27,HIGH(-@1)
	ST   X+,R30
	ST   X,R31
	.ENDM

	.MACRO __PUTD1SNX
	MOVW R26,R28
	SUBI R26,LOW(-@0)
	SBCI R27,HIGH(-@0)
	LD   R0,X+
	LD   R27,X
	MOV  R26,R0
	SUBI R26,LOW(-@1)
	SBCI R27,HIGH(-@1)
	ST   X+,R30
	ST   X+,R31
	ST   X+,R22
	ST   X,R23
	.ENDM

	.MACRO __MULBRR
	MULS R@0,R@1
	MOVW R30,R0
	.ENDM

	.MACRO __MULBRRU
	MUL  R@0,R@1
	MOVW R30,R0
	.ENDM

	.MACRO __MULBRR0
	MULS R@0,R@1
	.ENDM

	.MACRO __MULBRRU0
	MUL  R@0,R@1
	.ENDM

	.MACRO __MULBNWRU
	LDI  R26,@2
	MUL  R26,R@0
	MOVW R30,R0
	MUL  R26,R@1
	ADD  R31,R0
	.ENDM

	.CSEG
	.ORG 0x00

;START OF CODE MARKER
__START_OF_CODE:

;INTERRUPT VECTORS
	JMP  __RESET
	JMP  0x00
	JMP  0x00
	JMP  0x00
	JMP  0x00
	JMP  0x00
	JMP  0x00
	JMP  0x00
	JMP  0x00
	JMP  0x00
	JMP  0x00
	JMP  0x00
	JMP  0x00
	JMP  0x00
	JMP  0x00
	JMP  0x00
	JMP  0x00
	JMP  0x00
	JMP  0x00
	JMP  0x00
	JMP  0x00

_font:
	.DB  0x0,0x0,0x0,0x0,0x0,0x0,0x0,0x0
	.DB  0x0,0x0,0x0,0x0,0x0,0x0,0x0,0x0
	.DB  0x0,0x0,0x0,0x0,0x0,0x0,0x0,0x0
	.DB  0x0,0x0,0x0,0x0,0x0,0x0,0x0,0x0
	.DB  0x0,0x0,0x0,0x0,0x0,0x0,0x0,0x0
	.DB  0x0,0x0,0x0,0x0,0x0,0x0,0x0,0x0
	.DB  0x0,0x0,0x0,0x0,0x0,0x0,0x0,0x0
	.DB  0x0,0x0,0x0,0x0,0x0,0x0,0x0,0x0
	.DB  0x0,0x0,0x0,0x0,0x0,0x0,0x0,0x0
	.DB  0x0,0x0,0x0,0x0,0x0,0x0,0x0,0x0
	.DB  0x0,0x0,0x0,0x0,0x0,0x0,0x0,0x0
	.DB  0x0,0x0,0x0,0x0,0x0,0x0,0x0,0x0
	.DB  0x0,0x0,0x0,0x0,0x0,0x0,0x0,0x0
	.DB  0x0,0x0,0x0,0x0,0x0,0x0,0x0,0x0
	.DB  0x0,0x0,0x0,0x0,0x0,0x0,0x0,0x0
	.DB  0x0,0x0,0x0,0x0,0x0,0x0,0x0,0x0
	.DB  0x20,0x20,0x28,0x28,0x68,0xB0,0x60,0x20
	.DB  0x20,0x20,0x28,0x2A,0x28,0x30,0x20,0x20
	.DB  0x0,0x80,0x80,0x44,0x32,0x24,0x20,0x20
	.DB  0x0,0x24,0x24,0x24,0x38,0x20,0x20,0x20
	.DB  0x20,0x20,0x20,0x20,0x24,0x2A,0x11,0x0
	.DB  0x20,0x20,0x20,0x24,0x2A,0x11,0x20,0x20
	.DB  0x30,0x20,0x20,0x20,0x24,0x2A,0x11,0x20
	.DB  0x20,0x20,0x30,0x20,0x30,0x28,0x28,0x18
	.DB  0x20,0x24,0x22,0x21,0x24,0x2A,0x11,0x0
	.DB  0x24,0x22,0x21,0x24,0x2A,0x11,0x20,0x20
	.DB  0x30,0x24,0x22,0x21,0x24,0x2A,0x11,0x20
	.DB  0x0,0x80,0x80,0x40,0x30,0x20,0x20,0x20
	.DB  0x20,0x20,0x20,0x60,0xA0,0x60,0x28,0x30
	.DB  0x20,0x20,0x20,0x60,0xB0,0x60,0x20,0x20
	.DB  0x0,0x30,0x28,0x60,0xA0,0x60,0x30,0x20
	.DB  0x0,0x4,0x6,0x1D,0x25,0x24,0x20,0x20
	.DB  0x0,0x0,0x0,0x0,0x0,0x0,0x0,0x0
	.DB  0x0,0x0,0x4F,0x0,0x0,0x0,0x0,0x0
	.DB  0x0,0x7,0x0,0x7,0x0,0x0,0x0,0x0
	.DB  0x0,0x14,0x7F,0x14,0x7F,0x14,0x0,0x0
	.DB  0x0,0x24,0x2A,0x7F,0x2A,0x12,0x0,0x0
	.DB  0x0,0x23,0x13,0x8,0x64,0x62,0x0,0x0
	.DB  0x0,0x36,0x49,0x55,0x22,0x40,0x0,0x0
	.DB  0x0,0x0,0x5,0x3,0x0,0x0,0x0,0x0
	.DB  0x0,0x1C,0x22,0x41,0x0,0x0,0x0,0x0
	.DB  0x0,0x41,0x22,0x1C,0x0,0x0,0x0,0x0
	.DB  0x0,0x14,0x8,0x3E,0x8,0x14,0x0,0x0
	.DB  0x0,0x8,0x8,0x3E,0x8,0x8,0x0,0x0
	.DB  0x0,0x0,0x28,0x18,0x0,0x0,0x0,0x0
	.DB  0x0,0x8,0x8,0x8,0x8,0x8,0x8,0x0
	.DB  0x0,0x30,0x30,0x0,0x0,0x0,0x0,0x0
	.DB  0x0,0x20,0x10,0x8,0x4,0x2,0x0,0x0
	.DB  0x0,0x3E,0x51,0x49,0x45,0x3E,0x0,0x0
	.DB  0x0,0x0,0x42,0x7F,0x40,0x0,0x0,0x0
	.DB  0x0,0x42,0x61,0x51,0x49,0x46,0x0,0x0
	.DB  0x0,0x21,0x41,0x45,0x4B,0x31,0x0,0x0
	.DB  0x0,0x18,0x14,0x12,0x7F,0x10,0x0,0x0
	.DB  0x0,0x0,0x27,0x45,0x45,0x45,0x39,0x0
	.DB  0x0,0x3C,0x4A,0x49,0x49,0x30,0x0,0x0
	.DB  0x0,0x1,0x71,0x9,0x5,0x3,0x0,0x0
	.DB  0x0,0x36,0x49,0x49,0x49,0x36,0x0,0x0
	.DB  0x0,0x6,0x49,0x49,0x29,0x1E,0x0,0x0
	.DB  0x0,0x0,0x36,0x36,0x0,0x0,0x0,0x0
	.DB  0x0,0x0,0x56,0x36,0x0,0x0,0x0,0x0
	.DB  0x0,0x8,0x14,0x22,0x41,0x0,0x0,0x0
	.DB  0x0,0x24,0x24,0x24,0x24,0x24,0x0,0x0
	.DB  0x0,0x0,0x41,0x22,0x14,0x8,0x0,0x0
	.DB  0x0,0x2,0x1,0x51,0x9,0x6,0x0,0x0
	.DB  0x0,0x32,0x49,0x79,0x41,0x3E,0x0,0x0
	.DB  0x0,0x7E,0x11,0x11,0x11,0x7E,0x0,0x0
	.DB  0x0,0x7F,0x49,0x49,0x49,0x36,0x0,0x0
	.DB  0x0,0x3E,0x41,0x41,0x41,0x22,0x0,0x0
	.DB  0x0,0x7F,0x41,0x41,0x22,0x1C,0x0,0x0
	.DB  0x0,0x7F,0x49,0x49,0x49,0x41,0x0,0x0
	.DB  0x0,0x7F,0x9,0x9,0x9,0x1,0x0,0x0
	.DB  0x0,0x3E,0x41,0x49,0x49,0x3A,0x0,0x0
	.DB  0x0,0x7F,0x8,0x8,0x8,0x7F,0x0,0x0
	.DB  0x0,0x0,0x41,0x7F,0x41,0x0,0x0,0x0
	.DB  0x0,0x20,0x40,0x41,0x3F,0x1,0x0,0x0
	.DB  0x0,0x7F,0x8,0x14,0x22,0x41,0x0,0x0
	.DB  0x0,0x7F,0x40,0x40,0x40,0x40,0x0,0x0
	.DB  0x0,0x7F,0x2,0xC,0x2,0x7F,0x0,0x0
	.DB  0x0,0x7F,0x4,0x8,0x10,0x7F,0x0,0x0
	.DB  0x0,0x3E,0x41,0x41,0x41,0x3E,0x0,0x0
	.DB  0x0,0x7F,0x9,0x9,0x9,0x6,0x0,0x0
	.DB  0x3E,0x41,0x51,0x21,0x5E,0x0,0x0,0x0
	.DB  0x0,0x7F,0x9,0x19,0x29,0x46,0x0,0x0
	.DB  0x0,0x46,0x49,0x49,0x49,0x31,0x0,0x0
	.DB  0x0,0x1,0x1,0x7F,0x1,0x1,0x0,0x0
	.DB  0x0,0x3F,0x40,0x40,0x40,0x3F,0x0,0x0
	.DB  0x0,0x1F,0x20,0x40,0x20,0x1F,0x0,0x0
	.DB  0x0,0x3F,0x40,0x60,0x40,0x3F,0x0,0x0
	.DB  0x0,0x63,0x14,0x8,0x14,0x63,0x0,0x0
	.DB  0x0,0x7,0x8,0x70,0x8,0x7,0x0,0x0
	.DB  0x0,0x61,0x51,0x49,0x45,0x43,0x0,0x0
	.DB  0x0,0x7F,0x41,0x41,0x0,0x0,0x0,0x0
	.DB  0x0,0x15,0x16,0x7C,0x16,0x15,0x0,0x0
	.DB  0x0,0x41,0x41,0x7F,0x0,0x0,0x0,0x0
	.DB  0x0,0x4,0x2,0x1,0x2,0x4,0x0,0x0
	.DB  0x0,0x40,0x40,0x40,0x40,0x40,0x0,0x0
	.DB  0x0,0x1,0x2,0x4,0x0,0x0,0x0,0x0
	.DB  0x0,0x20,0x54,0x54,0x54,0x78,0x0,0x0
	.DB  0x0,0x7F,0x44,0x44,0x44,0x38,0x0,0x0
	.DB  0x0,0x38,0x44,0x44,0x44,0x0,0x0,0x0
	.DB  0x0,0x38,0x44,0x44,0x48,0x7F,0x0,0x0
	.DB  0x0,0x38,0x54,0x54,0x54,0x18,0x0,0x0
	.DB  0x0,0x10,0x7E,0x11,0x1,0x2,0x0,0x0
	.DB  0x0,0xC,0x52,0x52,0x52,0x3E,0x0,0x0
	.DB  0x0,0x7F,0x8,0x4,0x4,0x78,0x0,0x0
	.DB  0x0,0x0,0x44,0x7D,0x40,0x0,0x0,0x0
	.DB  0x0,0x20,0x40,0x40,0x3D,0x0,0x0,0x0
	.DB  0x0,0x7F,0x10,0x28,0x44,0x0,0x0,0x0
	.DB  0x0,0x0,0x41,0x7F,0x40,0x0,0x0,0x0
	.DB  0x0,0x7C,0x4,0x18,0x4,0x78,0x0,0x0
	.DB  0x0,0x7C,0x8,0x4,0x4,0x78,0x0,0x0
	.DB  0x0,0x38,0x44,0x44,0x44,0x38,0x0,0x0
	.DB  0x0,0x7C,0x14,0x14,0x14,0x8,0x0,0x0
	.DB  0x0,0x8,0x14,0x14,0x18,0x7C,0x0,0x0
	.DB  0x0,0x7C,0x8,0x4,0x4,0x8,0x0,0x0
	.DB  0x0,0x48,0x54,0x54,0x54,0x20,0x0,0x0
	.DB  0x0,0x4,0x3F,0x44,0x40,0x20,0x0,0x0
	.DB  0x0,0x3C,0x40,0x40,0x20,0x7C,0x0,0x0
	.DB  0x0,0x1C,0x20,0x40,0x20,0x1C,0x0,0x0
	.DB  0x0,0x1E,0x20,0x10,0x20,0x1E,0x0,0x0
	.DB  0x0,0x22,0x14,0x8,0x14,0x22,0x0,0x0
	.DB  0x0,0x6,0x48,0x48,0x48,0x3E,0x0,0x0
	.DB  0x0,0x44,0x64,0x54,0x4C,0x44,0x0,0x0
	.DB  0x0,0x8,0x36,0x41,0x0,0x0,0x0,0x0
	.DB  0x0,0x0,0x0,0x7F,0x0,0x0,0x0,0x0
	.DB  0x0,0x41,0x36,0x8,0x0,0x0,0x0,0x0
	.DB  0x0,0x8,0x8,0x2A,0x1C,0x8,0x0,0x0
	.DB  0x0,0x8,0x1C,0x2A,0x8,0x8,0x0,0x0
	.DB  0x0,0x3C,0x42,0x41,0x42,0x3C,0x0,0x0
	.DB  0x0,0x30,0x28,0x60,0xA0,0x60,0x28,0x30
	.DB  0x20,0x20,0x20,0x20,0xA0,0x20,0x28,0x30
	.DB  0x20,0x20,0x20,0x20,0xB0,0x20,0x20,0x20
	.DB  0x0,0x30,0x28,0x20,0xA0,0x20,0x30,0x20
	.DB  0x20,0x20,0x20,0x22,0x20,0x22,0x28,0x30
	.DB  0x20,0x20,0x20,0x22,0x30,0x22,0x20,0x20
	.DB  0x0,0x30,0x28,0x22,0x20,0x22,0x30,0x20
	.DB  0x20,0x20,0x20,0x22,0x21,0x22,0x28,0x30
	.DB  0x20,0x20,0x20,0x22,0x31,0x22,0x20,0x20
	.DB  0x0,0x30,0x28,0x22,0x21,0x22,0x30,0x20
	.DB  0x20,0x20,0x28,0x28,0x28,0xB0,0x20,0x20
	.DB  0x20,0x20,0x28,0x28,0x28,0x30,0x20,0x20
	.DB  0x0,0xC0,0xA8,0x28,0x68,0xB0,0x60,0x20
	.DB  0x0,0x0,0x80,0x80,0x44,0x32,0x4,0x0
	.DB  0x0,0x24,0x25,0x24,0x38,0x20,0x20,0x20
	.DB  0x30,0x24,0x22,0x21,0x24,0x2A,0x11,0x0
	.DB  0x0,0x80,0x80,0x40,0x34,0x20,0x20,0x20
	.DB  0x20,0x20,0x20,0x38,0x20,0x38,0x20,0x18
	.DB  0x20,0x20,0x38,0x20,0x38,0x20,0x38,0x20
	.DB  0x60,0x80,0x80,0x78,0x20,0x38,0x20,0x18
	.DB  0x20,0x20,0x20,0x38,0x22,0x39,0x22,0x18
	.DB  0x20,0x20,0x38,0x22,0x39,0x22,0x38,0x20
	.DB  0x60,0x80,0x80,0x78,0x22,0x39,0x22,0x18
	.DB  0x30,0x20,0x20,0x20,0x24,0x2A,0x11,0x0
	.DB  0x20,0x30,0x20,0x30,0x28,0x28,0x38,0x20
	.DB  0x60,0x80,0x80,0x60,0x30,0x28,0x28,0x38
	.DB  0x20,0x20,0x30,0x20,0x30,0x28,0x2A,0x18
	.DB  0x20,0x30,0x20,0x30,0x28,0x2A,0x38,0x20
	.DB  0x60,0x80,0x80,0x60,0x30,0x28,0x2A,0x38
	.DB  0x20,0x20,0x3E,0x30,0x28,0x28,0x38,0x20
	.DB  0x20,0x20,0x3E,0x30,0x28,0x2A,0x38,0x20
	.DB  0x20,0x20,0x20,0x20,0x30,0x28,0x28,0x0
	.DB  0x20,0x20,0x20,0x30,0x28,0x28,0x20,0x20
	.DB  0x0,0x40,0xA0,0xB0,0x28,0x28,0x20,0x20
	.DB  0x20,0x20,0x20,0x20,0x30,0x28,0x2A,0x0
	.DB  0x20,0x20,0x20,0x30,0x28,0x2A,0x20,0x20
	.DB  0x0,0x40,0xA0,0xB0,0x28,0x2A,0x20,0x20
	.DB  0x20,0x20,0x20,0x20,0x30,0x28,0x2A,0x30
	.DB  0x20,0x20,0x30,0x28,0x2A,0x30,0x20,0x20
	.DB  0x0,0x18,0x20,0x20,0x30,0x28,0x2A,0x30
	.DB  0x20,0x20,0x20,0x20,0x30,0x2A,0x28,0x32
	.DB  0x20,0x20,0x30,0x2A,0x28,0x32,0x20,0x20
	.DB  0x60,0x80,0x80,0xB2,0xA8,0x7A,0x20,0x20
	.DB  0x22,0x25,0x25,0x25,0x25,0x25,0x25,0x19
	.DB  0x20,0x20,0x20,0x1C,0x22,0x21,0x20,0x20
	.DB  0x30,0x28,0x2C,0x2A,0x20,0x3F,0x20,0x20
	.DB  0x20,0x20,0x20,0x20,0x20,0x20,0x1F,0x0
	.DB  0x20,0x20,0x20,0x20,0x1F,0x20,0x20,0x20
	.DB  0x0,0x30,0x40,0x40,0x3F,0x20,0x20,0x20
	.DB  0x20,0x20,0x20,0x20,0x30,0x48,0x48,0x30
	.DB  0x20,0x20,0x30,0x48,0x48,0x30,0x20,0x20
	.DB  0x80,0x40,0x30,0x48,0x48,0x30,0x20,0x20
	.DB  0x20,0x20,0x20,0x20,0x22,0x20,0x18,0x0
	.DB  0x20,0x20,0x20,0x20,0x1A,0x20,0x20,0x20
	.DB  0x30,0x40,0x44,0x40,0x30,0x20,0x20,0x20
	.DB  0x20,0x20,0x20,0x30,0x28,0x3A,0x2C,0x18
	.DB  0x20,0x20,0x30,0x28,0x3A,0x2C,0x38,0x20
	.DB  0x0,0x18,0x14,0x14,0x18,0x20,0x20,0x20
	.DB  0x0,0x21,0x22,0x24,0x28,0x10,0xF,0x0
	.DB  0x0,0xB0,0xA8,0x78,0x20,0x20,0x20,0x20
	.DB  0x20,0x20,0x20,0xA0,0x20,0xA0,0x28,0x30
	.DB  0x20,0x20,0x20,0xA0,0x30,0xA0,0x20,0x20
	.DB  0x0,0x60,0x80,0x80,0xA0,0x50,0x10,0x20
	.DB  0x0,0x1E,0x20,0x20,0x20,0x20,0x20,0x20
	.DB  0x0,0x20,0x30,0x28,0x28,0x20,0x0,0x0
	.DB  0x0,0x4,0x2,0x2,0x3A,0x2,0x2,0x1
	.DB  0x0,0x0,0x4,0x6,0x3D,0x5,0x4,0x0
	.DB  0x0,0x0,0x4,0xB6,0xAD,0x7D,0x4,0x0
	.DB  0x0,0x0,0x80,0xC0,0xBF,0xA0,0x80,0x0
	.DB  0x4,0x66,0x85,0x95,0xA8,0xA8,0x48,0x0
	.DB  0x0,0x0,0x0,0x3F,0x0,0x0,0x0,0x0
	.DB  0x0,0x30,0x28,0x20,0xA0,0x20,0x28,0x30
	.DB  0x0,0x0,0x30,0x2A,0x28,0x32,0x0,0x0
	.DB  0x0,0x30,0x28,0x22,0x20,0x22,0x28,0x30
	.DB  0x0,0x30,0x28,0x22,0x21,0x22,0x28,0x30
	.DB  0x0,0xC0,0xA8,0xA8,0x28,0xB0,0x20,0x20
	.DB  0x0,0xC0,0xA8,0xA8,0xA8,0x30,0x20,0x20
	.DB  0x0,0xC0,0xA8,0xAA,0x28,0x30,0x20,0x20
	.DB  0x0,0x0,0x24,0x24,0x24,0x38,0x0,0x0
	.DB  0x0,0x0,0x24,0x25,0x24,0x38,0x0,0x0
	.DB  0x0,0x80,0x80,0x40,0x30,0x0,0x0,0x0
	.DB  0x0,0x0,0x80,0x80,0x40,0x34,0x0,0x0
	.DB  0x60,0x80,0x80,0x78,0x20,0x38,0x20,0x18
	.DB  0x60,0x80,0x80,0x78,0x22,0x39,0x22,0x18
	.DB  0x60,0x80,0x80,0x60,0x30,0x28,0x28,0x18
	.DB  0x60,0x80,0x80,0x60,0x30,0x28,0x2A,0x18
	.DB  0x0,0x22,0x14,0x8,0x14,0x22,0x0,0x0
	.DB  0x20,0x20,0x3E,0x30,0x28,0x28,0x18,0x0
	.DB  0x20,0x20,0x3E,0x30,0x28,0x2A,0x18,0x0
	.DB  0x0,0x0,0x40,0xA0,0xB0,0x28,0x28,0x0
	.DB  0x0,0x0,0x40,0xA0,0xB0,0x2A,0x28,0x0
	.DB  0x20,0x20,0x20,0x20,0x20,0x20,0x20,0x20
	.DB  0x0,0x18,0x20,0x20,0x30,0x28,0x2A,0x30
	.DB  0x0,0x60,0x80,0x80,0xB2,0xA8,0x7A,0x0
	.DB  0x0,0x30,0x28,0x2C,0x2A,0x20,0x3F,0x0
	.DB  0x0,0x40,0xA9,0xAA,0xA8,0xF0,0x0,0x0
	.DB  0x0,0x0,0x60,0x80,0x80,0x7E,0x0,0x0
	.DB  0x0,0x40,0xAA,0xA9,0xAA,0xF0,0x0,0x0
	.DB  0x0,0x0,0xC0,0x20,0x30,0x28,0x28,0x30
	.DB  0x0,0x0,0x60,0x80,0x88,0x80,0x60,0x0
	.DB  0x0,0x0,0x30,0x28,0x28,0x30,0x0,0x0
	.DB  0x0,0x0,0x0,0xB0,0xA8,0x78,0x0,0x0
	.DB  0x4,0x26,0x25,0x25,0x28,0x10,0xF,0x0
	.DB  0x4,0x22,0x22,0x26,0x29,0x10,0xF,0x0
	.DB  0x0,0x21,0x22,0x24,0xA8,0xD0,0xAF,0xA0
	.DB  0x0,0x70,0xAA,0xA9,0xAA,0x30,0x0,0x0
	.DB  0x0,0x70,0xAA,0xA8,0xAA,0x30,0x0,0x0
	.DB  0x0,0x30,0x40,0x40,0x50,0x28,0x8,0x0
	.DB  0x0,0x30,0xC0,0x40,0xD0,0x28,0x8,0x0
	.DB  0x0,0x0,0x2,0x79,0x2,0x0,0x0,0x0
	.DB  0x0,0x0,0x2,0x78,0x2,0x0,0x0,0x0
	.DB  0x0,0x0,0x0,0x0,0x0,0x5,0x5,0x5
	.DB  0x0,0x0,0x0,0x4,0x3,0xB,0x6,0x6
	.DB  0xA0,0xA0,0xA0,0x0,0x0,0x0,0x0,0x0
	.DB  0x0,0x0,0x1,0x1,0x1,0x1,0x0,0x0
	.DB  0x0,0x21,0x22,0x24,0x28,0x10,0x2F,0x20
	.DB  0x0,0x0,0x0,0x0,0x0,0x4,0x3,0x3
	.DB  0x0,0x0,0x80,0x80,0x80,0x80,0x0,0x0
	.DB  0x0,0x0,0x10,0x10,0x54,0x10,0x10,0x0
	.DB  0x0,0x0,0x2,0x4,0x2,0x4,0x2,0x0
	.DB  0x20,0x24,0x26,0x25,0x25,0x20,0x28,0x30
	.DB  0x20,0x24,0x26,0x25,0x35,0x20,0x20,0x20
	.DB  0x8,0x6C,0x8A,0x8A,0xA0,0x50,0x10,0x20
	.DB  0x4,0xB6,0xAD,0x7D,0x24,0x20,0x20,0x20
	.DB  0x0,0x19,0x14,0x15,0x18,0x20,0x20,0x20
	.DB  0x4,0x2,0x2,0x1A,0x22,0x22,0x21,0x20
	.DB  0x0,0x40,0x60,0x50,0x48,0x50,0x40,0x40
_map:
	.DB  0xC1,0xC1,0xC1,0xC1,0x0,0x0,0xC2,0xC2
	.DB  0xFE,0xFE,0x1,0x0,0xC3,0xC3,0x1F,0x1F
	.DB  0x1,0x0,0xC4,0xC4,0xFC,0xFC,0x1,0x0
	.DB  0xC5,0xC5,0xC5,0xC5,0x1,0x1,0xC6,0xBD
	.DB  0xBF,0xBE,0x1,0x1,0xC7,0xC7,0xC0,0xC0
	.DB  0x1,0x0,0xC8,0x82,0x84,0x83,0x1,0x1
	.DB  0xC9,0xC9,0xFD,0xFD,0x1,0x0,0xCA,0x85
	.DB  0x87,0x86,0x1,0x1,0xCB,0x88,0x8A,0x89
	.DB  0x1,0x1,0xCC,0x8B,0xCC,0x8B,0x1,0x1
	.DB  0xCD,0x8C,0xCD,0x8C,0x1,0x1,0xCE,0x11
	.DB  0xCE,0x11,0x1,0x1,0xCF,0xCF,0x13,0x13
	.DB  0x1,0x0,0xD0,0xD0,0x8F,0x8F,0x1,0x0
	.DB  0xD1,0xD1,0x1B,0x1B,0x1,0x0,0xD2,0xD2
	.DB  0x91,0x91,0x1,0x0,0xD3,0x92,0x94,0x93
	.DB  0x1,0x1,0xD4,0x95,0x97,0x96,0x1,0x1
	.DB  0xD5,0x17,0x9A,0x99,0x1,0x1,0xD6,0x9B
	.DB  0x9D,0x9C,0x1,0x1,0xD7,0xD7,0xD7,0xD7
	.DB  0x0,0x0,0xD8,0xD8,0x9E,0x9E,0x1,0x1
	.DB  0xD9,0xD9,0x9F,0x9F,0x1,0x1,0xDA,0xA0
	.DB  0xA2,0xA1,0x1,0x1,0xDB,0xA3,0xA5,0xA4
	.DB  0x1,0x1,0xDC,0xDC,0xDC,0xDC,0x0,0x0
	.DB  0xDD,0xA6,0xA8,0xA7,0x1,0x1,0xDE,0xA9
	.DB  0xAB,0xAA,0x1,0x1,0xDF,0xAC,0xAE,0xAD
	.DB  0x1,0x1,0xE0,0xE0,0xE0,0xE0,0x0,0x0
	.DB  0xE1,0xAF,0xB1,0xB0,0x1,0x1,0xE2,0xE2
	.DB  0xE2,0xE2,0x0,0x0,0xE3,0xB2,0xB4,0xB3
	.DB  0x1,0x1,0xE4,0xB5,0xB7,0xB6,0x1,0x1
	.DB  0xE5,0xB8,0xBA,0xB9,0x1,0x1,0xE6,0xE6
	.DB  0xBC,0xBC,0x1,0x0,0xE7,0xE7,0xE7,0xE7
	.DB  0x0,0x0,0xE8,0xE8,0xE8,0xE8,0x0,0x0
	.DB  0xE9,0xE9,0xE9,0xE9,0x0,0x0,0xEA,0xEA
	.DB  0xEA,0xEA,0x0,0x0,0xEB,0xEB,0xEB,0xEB
	.DB  0x0,0x0,0xEC,0xBD,0xBF,0xBE,0x1,0x1
	.DB  0xED,0xBD,0xBF,0xBE,0x1,0x1,0xEE,0xEE
	.DB  0xEE,0xEE,0x0,0x0,0xEF,0xEF,0xEF,0xEF
	.DB  0x0,0x0,0xF0,0xF0,0xF0,0xF0,0x0,0x0
	.DB  0xF1,0xF1,0xF1,0xF1,0x0,0x0,0xF2,0xF2
	.DB  0xF2,0xF2,0x0,0x0,0xF3,0xF3,0xF3,0xF3
	.DB  0x0,0x0,0xF5,0xF5,0xF5,0xF5,0x0,0x0
	.DB  0xF6,0xF6,0xF6,0xF6,0x0,0x0,0xF7,0xF7
	.DB  0xF7,0xF7,0x0,0x0,0xF8,0xF8,0xF8,0xF8
	.DB  0x0,0x0,0xFB,0xF9,0xFB,0xFA,0x1,0x1
	.DB  0xBB,0xBB,0xF4,0xF4,0x1,0x0,0x81,0x1C
	.DB  0x1E,0x1D,0x1,0x1,0x90,0x18,0x1A,0x19
	.DB  0x1,0x1,0x98,0x14,0x16,0x15,0x1,0x1
	.DB  0x8E,0x8E,0x12,0x12,0x1,0x0,0x8D,0x10
	.DB  0x8D,0x10,0x1,0x1
_tbl10_G100:
	.DB  0x10,0x27,0xE8,0x3,0x64,0x0,0xA,0x0
	.DB  0x1,0x0
_tbl16_G100:
	.DB  0x0,0x10,0x0,0x1,0x10,0x0,0x1,0x0

_0x3:
	.DB  0xC1
_0xE5:
	.DB  0x33,0x2D,0x54,0x45,0x4D,0x50,0x45,0x52
	.DB  0x41,0x54,0x55,0x52,0x45,0x0,0x32,0x2D
	.DB  0x44,0x49,0x46,0x49,0x4E,0x45,0x20,0x50
	.DB  0x41,0x54,0x54,0x45,0x52,0x4E,0x0,0x31
	.DB  0x2D,0x53,0x45,0x4C,0x45,0x43,0x54,0x20
	.DB  0x50,0x41,0x54,0x54,0x45,0x52,0x4E,0x0
_0xE9:
	.DB  0x48,0x4F,0x4D,0x45,0x0,0x38,0x2D,0x50
	.DB  0x41,0x54,0x54,0x45,0x52,0x4E,0x38,0x0
	.DB  0x37,0x2D,0x50,0x41,0x54,0x54,0x45,0x52
	.DB  0x4E,0x37,0x0,0x36,0x2D,0x50,0x41,0x54
	.DB  0x54,0x45,0x52,0x4E,0x36,0x0,0x35,0x2D
	.DB  0x50,0x41,0x54,0x54,0x45,0x52,0x4E,0x35
	.DB  0x0,0x34,0x2D,0x50,0x41,0x54,0x54,0x45
	.DB  0x52,0x4E,0x34,0x0,0x33,0x2D,0x50,0x41
	.DB  0x54,0x54,0x45,0x52,0x4E,0x33,0x0,0x32
	.DB  0x2D,0x50,0x41,0x54,0x54,0x45,0x52,0x4E
	.DB  0x32,0x0,0x31,0x2D,0x50,0x41,0x54,0x54
	.DB  0x45,0x52,0x4E,0x31,0x0
_0xEB:
	.DB  0x31,0x30,0x30,0x30,0x30,0x30,0x30,0x30
	.DB  0x30,0x30,0x30,0x30,0x30,0x30,0x30,0x30
	.DB  0x30,0x30,0x30,0x30,0x30,0x30,0x30,0x30
	.DB  0x0
_0xED:
	.DB  0x31,0x30,0x30,0x31,0x30,0x30,0x30,0x30
	.DB  0x30,0x30,0x30,0x30,0x30,0x30,0x30,0x30
	.DB  0x30,0x30,0x30,0x30,0x30,0x30,0x30,0x30
	.DB  0x0
_0xEF:
	.DB  0x31,0x30,0x31,0x30,0x30,0x30,0x30,0x30
	.DB  0x30,0x30,0x30,0x30,0x30,0x30,0x30,0x30
	.DB  0x30,0x30,0x30,0x30,0x30,0x30,0x30,0x30
	.DB  0x0
_0xF1:
	.DB  0x31,0x30,0x31,0x31,0x30,0x30,0x30,0x30
	.DB  0x30,0x30,0x30,0x30,0x30,0x30,0x30,0x30
	.DB  0x30,0x30,0x30,0x30,0x30,0x30,0x30,0x30
	.DB  0x0
_0xF3:
	.DB  0x31,0x31,0x30,0x30,0x30,0x30,0x30,0x30
	.DB  0x30,0x30,0x30,0x30,0x30,0x30,0x30,0x30
	.DB  0x30,0x30,0x30,0x30,0x30,0x30,0x30,0x30
	.DB  0x0
_0xF5:
	.DB  0x31,0x31,0x30,0x31,0x30,0x30,0x30,0x30
	.DB  0x30,0x30,0x30,0x30,0x30,0x30,0x30,0x30
	.DB  0x30,0x30,0x30,0x30,0x30,0x30,0x30,0x30
	.DB  0x0
_0xF7:
	.DB  0x31,0x31,0x31,0x30,0x30,0x30,0x30,0x30
	.DB  0x30,0x30,0x30,0x30,0x30,0x30,0x30,0x30
	.DB  0x30,0x30,0x30,0x30,0x30,0x30,0x30,0x30
	.DB  0x0
_0xF9:
	.DB  0x31,0x31,0x31,0x31,0x30,0x30,0x30,0x30
	.DB  0x30,0x30,0x30,0x30,0x30,0x30,0x30,0x30
	.DB  0x30,0x30,0x30,0x30,0x30,0x30,0x30,0x30
	.DB  0x0
_0xFF:
	.DB  0x48,0x4F,0x4D,0x45,0x0,0x38,0x2D,0x50
	.DB  0x41,0x54,0x54,0x45,0x52,0x4E,0x38,0x0
	.DB  0x37,0x2D,0x50,0x41,0x54,0x54,0x45,0x52
	.DB  0x4E,0x37,0x0,0x36,0x2D,0x50,0x41,0x54
	.DB  0x54,0x45,0x52,0x4E,0x36,0x0,0x35,0x2D
	.DB  0x50,0x41,0x54,0x54,0x45,0x52,0x4E,0x35
	.DB  0x0,0x34,0x2D,0x50,0x41,0x54,0x54,0x45
	.DB  0x52,0x4E,0x34,0x0,0x33,0x2D,0x50,0x41
	.DB  0x54,0x54,0x45,0x52,0x4E,0x33,0x0,0x32
	.DB  0x2D,0x50,0x41,0x54,0x54,0x45,0x52,0x4E
	.DB  0x32,0x0,0x31,0x2D,0x50,0x41,0x54,0x54
	.DB  0x45,0x52,0x4E,0x31,0x0
_0x101:
	.DB  0x73,0x65,0x6C,0x65,0x63,0x74,0x20,0x62
	.DB  0x6C,0x6F,0x63,0x6B,0x0,0x6E,0x65,0x77
	.DB  0x0,0x30,0x31,0x31,0x31,0x31,0x31,0x31
	.DB  0x31,0x31,0x31,0x31,0x31,0x31,0x31,0x31
	.DB  0x31,0x31,0x0
_0x118:
	.DB  0x73,0x65,0x6C,0x65,0x63,0x74,0x20,0x62
	.DB  0x6C,0x6F,0x63,0x6B,0x0,0x6E,0x65,0x77
	.DB  0x0,0x30,0x30,0x31,0x30,0x31,0x30,0x31
	.DB  0x30,0x31,0x30,0x31,0x30,0x31,0x30,0x31
	.DB  0x30,0x31,0x0
_0x12F:
	.DB  0x73,0x65,0x6C,0x65,0x63,0x74,0x20,0x62
	.DB  0x6C,0x6F,0x63,0x6B,0x0,0x6E,0x65,0x77
	.DB  0x0,0x30,0x30,0x31,0x31,0x30,0x30,0x30
	.DB  0x31,0x31,0x30,0x30,0x31,0x31,0x30,0x30
	.DB  0x31,0x31,0x0
_0x146:
	.DB  0x73,0x65,0x6C,0x65,0x63,0x74,0x20,0x62
	.DB  0x6C,0x6F,0x63,0x6B,0x0,0x6E,0x65,0x77
	.DB  0x0,0x30,0x30,0x30,0x31,0x31,0x30,0x31
	.DB  0x31,0x31,0x31,0x31,0x31,0x30,0x31,0x30
	.DB  0x31,0x31,0x0
_0x15D:
	.DB  0x73,0x65,0x6C,0x65,0x63,0x74,0x20,0x62
	.DB  0x6C,0x6F,0x63,0x6B,0x0,0x6E,0x65,0x77
	.DB  0x0,0x30,0x30,0x30,0x30,0x31,0x30,0x31
	.DB  0x31,0x31,0x31,0x31,0x31,0x30,0x31,0x31
	.DB  0x30,0x31,0x0
_0x174:
	.DB  0x73,0x65,0x6C,0x65,0x63,0x74,0x20,0x62
	.DB  0x6C,0x6F,0x63,0x6B,0x0,0x6E,0x65,0x77
	.DB  0x0,0x30,0x31,0x31,0x31,0x31,0x30,0x30
	.DB  0x30,0x30,0x30,0x30,0x30,0x30,0x31,0x31
	.DB  0x31,0x31,0x0
_0x18B:
	.DB  0x73,0x65,0x6C,0x65,0x63,0x74,0x20,0x62
	.DB  0x6C,0x6F,0x63,0x6B,0x0,0x6E,0x65,0x77
	.DB  0x0,0x30,0x30,0x31,0x30,0x31,0x31,0x31
	.DB  0x31,0x31,0x31,0x31,0x31,0x30,0x30,0x31
	.DB  0x30,0x31,0x0
_0x1A2:
	.DB  0x73,0x65,0x6C,0x65,0x63,0x74,0x20,0x62
	.DB  0x6C,0x6F,0x63,0x6B,0x0,0x6E,0x65,0x77
	.DB  0x0,0x30,0x30,0x31,0x30,0x31,0x31,0x31
	.DB  0x30,0x31,0x30,0x31,0x31,0x31,0x30,0x31
	.DB  0x31,0x31,0x0
_0x1B9:
	.DB  0x48,0x4F,0x4D,0x45,0x0,0x54,0x65,0x6D
	.DB  0x70,0x3D,0x0
_0x0:
	.DB  0x25,0x73,0x0
_0x2040060:
	.DB  0x1
_0x2040000:
	.DB  0x2D,0x4E,0x41,0x4E,0x0,0x49,0x4E,0x46
	.DB  0x0

__GLOBAL_INI_TBL:
	.DW  0x01
	.DW  _prevLet_G000
	.DW  _0x3*2

	.DW  0x01
	.DW  __seed_G102
	.DW  _0x2040060*2

_0xFFFFFFFF:
	.DW  0

#define __GLOBAL_INI_TBL_PRESENT 1

__RESET:
	CLI
	CLR  R30
	OUT  EECR,R30

;INTERRUPT VECTORS ARE PLACED
;AT THE START OF FLASH
	LDI  R31,1
	OUT  GICR,R31
	OUT  GICR,R30
	OUT  MCUCR,R30

;CLEAR R2-R14
	LDI  R24,(14-2)+1
	LDI  R26,2
	CLR  R27
__CLEAR_REG:
	ST   X+,R30
	DEC  R24
	BRNE __CLEAR_REG

;CLEAR SRAM
	LDI  R24,LOW(__CLEAR_SRAM_SIZE)
	LDI  R25,HIGH(__CLEAR_SRAM_SIZE)
	LDI  R26,__SRAM_START
__CLEAR_SRAM:
	ST   X+,R30
	SBIW R24,1
	BRNE __CLEAR_SRAM

;GLOBAL VARIABLES INITIALIZATION
	LDI  R30,LOW(__GLOBAL_INI_TBL*2)
	LDI  R31,HIGH(__GLOBAL_INI_TBL*2)
__GLOBAL_INI_NEXT:
	LPM  R24,Z+
	LPM  R25,Z+
	SBIW R24,0
	BREQ __GLOBAL_INI_END
	LPM  R26,Z+
	LPM  R27,Z+
	LPM  R0,Z+
	LPM  R1,Z+
	MOVW R22,R30
	MOVW R30,R0
__GLOBAL_INI_LOOP:
	LPM  R0,Z+
	ST   X+,R0
	SBIW R24,1
	BRNE __GLOBAL_INI_LOOP
	MOVW R30,R22
	RJMP __GLOBAL_INI_NEXT
__GLOBAL_INI_END:

;HARDWARE STACK POINTER INITIALIZATION
	LDI  R30,LOW(__SRAM_END-__HEAP_SIZE)
	OUT  SPL,R30
	LDI  R30,HIGH(__SRAM_END-__HEAP_SIZE)
	OUT  SPH,R30

;DATA STACK POINTER INITIALIZATION
	LDI  R28,LOW(__SRAM_START+__DSTACK_SIZE)
	LDI  R29,HIGH(__SRAM_START+__DSTACK_SIZE)

	JMP  _main

	.ESEG
	.ORG 0

	.DSEG
	.ORG 0x260

	.CSEG
;/*
; * MyMicroProject.c
; *
; * Created: 08/01/2017 12:31:12 ﬁ.Ÿ
; * Author: hell
; */
;
;#include <io.h>
	#ifndef __SLEEP_DEFINED__
	#define __SLEEP_DEFINED__
	.EQU __se_bit=0x80
	.EQU __sm_mask=0x70
	.EQU __sm_powerdown=0x20
	.EQU __sm_powersave=0x30
	.EQU __sm_standby=0x60
	.EQU __sm_ext_standby=0x70
	.EQU __sm_adc_noise_red=0x10
	.SET power_ctrl_reg=mcucr
	#endif
;#include <mega32.h>
;#include <delay.h>
;#include <stdio.h>
;#include <string.h>
;#include "Includes/graph.h"
;#include "Includes/GLCD.h"

	.DSEG

	.CSEG
_trigger:
; .FSTART _trigger
	SBI  0x15,1
	__DELAY_USB 1
	CBI  0x15,1
	__DELAY_USB 1
	RET
; .FEND
_glcd_on:
; .FSTART _glcd_on
	SBI  0x15,2
	SBI  0x15,3
	CBI  0x12,7
	CBI  0x15,0
	LDI  R30,LOW(63)
	OUT  0x1B,R30
	RCALL _trigger
	RET
; .FEND
;	line -> Y+0
_goto_col:
; .FSTART _goto_col
	ST   -Y,R27
	ST   -Y,R26
	ST   -Y,R17
;	x -> Y+1
;	pattern -> R17
	CBI  0x12,7
	CBI  0x15,0
	LDD  R26,Y+1
	LDD  R27,Y+1+1
	CPI  R26,LOW(0x40)
	LDI  R30,HIGH(0x40)
	CPC  R27,R30
	BRSH _0x24
	SBI  0x15,2
	CBI  0x15,3
	LDD  R17,Y+1
	RJMP _0x29
_0x24:
	SBI  0x15,3
	CBI  0x15,2
	LDD  R30,Y+1
	SUBI R30,LOW(64)
	MOV  R17,R30
_0x29:
	MOV  R30,R17
	ORI  R30,0x40
	ANDI R30,0x7F
	MOV  R17,R30
	OUT  0x1B,R17
	RCALL _trigger
	LDD  R17,Y+0
	RJMP _0x20A0007
; .FEND
_goto_row:
; .FSTART _goto_row
	ST   -Y,R27
	ST   -Y,R26
	ST   -Y,R17
;	y -> Y+1
;	pattern -> R17
	CBI  0x12,7
	CBI  0x15,0
	LDD  R30,Y+1
	ORI  R30,LOW(0xB8)
	ANDI R30,0xBF
	MOV  R17,R30
	OUT  0x1B,R17
	RCALL _trigger
	LDD  R17,Y+0
	RJMP _0x20A0007
; .FEND
_goto_xy:
; .FSTART _goto_xy
	ST   -Y,R27
	ST   -Y,R26
;	x -> Y+2
;	y -> Y+0
	LDD  R26,Y+2
	LDD  R27,Y+2+1
	RCALL _goto_col
	LD   R26,Y
	LDD  R27,Y+1
	RCALL _goto_row
	ADIW R28,4
	RET
; .FEND
_glcd_write:
; .FSTART _glcd_write
	ST   -Y,R26
;	b -> Y+0
	SBI  0x12,7
	CBI  0x15,0
	LD   R30,Y
	OUT  0x1B,R30
	RCALL _trigger
	ADIW R28,1
	RET
; .FEND
_glcd_clrln:
; .FSTART _glcd_clrln
	ST   -Y,R26
	ST   -Y,R17
	ST   -Y,R16
;	ln -> Y+2
;	i -> R16,R17
	CALL SUBOPT_0x0
	LDD  R26,Y+4
	CLR  R27
	RCALL _goto_xy
	LDI  R30,LOW(64)
	LDI  R31,HIGH(64)
	ST   -Y,R31
	ST   -Y,R30
	LDD  R26,Y+4
	CLR  R27
	RCALL _goto_xy
	SBI  0x15,2
	__GETWRN 16,17,0
_0x39:
	__CPWRN 16,17,65
	BRGE _0x3A
	LDI  R26,LOW(0)
	RCALL _glcd_write
	__ADDWRN 16,17,1
	RJMP _0x39
_0x3A:
	LDD  R17,Y+1
	LDD  R16,Y+0
_0x20A0007:
	ADIW R28,3
	RET
; .FEND
_glcd_clear:
; .FSTART _glcd_clear
	ST   -Y,R17
	ST   -Y,R16
;	i -> R16,R17
	__GETWRN 16,17,0
_0x3C:
	__CPWRN 16,17,8
	BRGE _0x3D
	MOV  R26,R16
	RCALL _glcd_clrln
	__ADDWRN 16,17,1
	RJMP _0x3C
_0x3D:
	LD   R16,Y+
	LD   R17,Y+
	RET
; .FEND
;	status -> R17
;	column -> Y+1
;	read_data -> R17
;	x -> Y+4
;	y -> Y+2
;	color -> Y+1
;	pattern -> R17
;	x -> Y+7
;	y -> Y+5
;	l -> Y+4
;	s -> Y+3
;	c -> Y+2
;	i -> R16,R17
;	x -> Y+8
;	y -> Y+6
;	l -> Y+4
;	s -> Y+3
;	c -> Y+2
;	i -> R16,R17
;	x1 -> Y+22
;	y1 -> Y+20
;	x2 -> Y+18
;	y2 -> Y+16
;	s -> Y+15
;	c -> Y+14
;	i -> R17
;	y01 -> R16
;	temp -> R19
;	a -> Y+10
;	b -> Y+6
;	y00 -> R18
;	y010 -> R21
;	x1 -> Y+8
;	y1 -> Y+6
;	x2 -> Y+4
;	y2 -> Y+2
;	s -> Y+1
;	c -> Y+0
;	x11 -> Y+16
;	y11 -> Y+14
;	x12 -> Y+12
;	y12 -> Y+10
;	x21 -> Y+8
;	y21 -> Y+6
;	x22 -> Y+4
;	y22 -> Y+2
;	s -> Y+1
;	c -> Y+0
;	x1 -> Y+9
;	y1 -> Y+7
;	x2 -> Y+5
;	y2 -> Y+3
;	l -> Y+2
;	s -> Y+1
;	c -> Y+0
;	x1 -> Y+9
;	y1 -> Y+7
;	x2 -> Y+5
;	y2 -> Y+3
;	l -> Y+2
;	s -> Y+1
;	c -> Y+0
;	x11 -> Y+18
;	y11 -> Y+16
;	x12 -> Y+14
;	y12 -> Y+12
;	l1 -> Y+11
;	x21 -> Y+9
;	y21 -> Y+7
;	x22 -> Y+5
;	y22 -> Y+3
;	l2 -> Y+2
;	s -> Y+1
;	c -> Y+0
;	x11 -> Y+18
;	y11 -> Y+16
;	x12 -> Y+14
;	y12 -> Y+12
;	l1 -> Y+11
;	x21 -> Y+9
;	y21 -> Y+7
;	x22 -> Y+5
;	y22 -> Y+3
;	l2 -> Y+2
;	s -> Y+1
;	c -> Y+0
;	x0 -> Y+10
;	y0 -> Y+8
;	r -> Y+6
;	s -> Y+5
;	c -> Y+4
;	i -> R17
;	y -> R16
;	y00 -> R19
_putIt:
; .FSTART _putIt
	ST   -Y,R27
	ST   -Y,R26
	ST   -Y,R17
;	c -> Y+5
;	x -> Y+3
;	y -> Y+1
;	i -> R17
	LDD  R26,Y+3
	LDD  R27,Y+3+1
	RCALL _goto_col
	LDD  R26,Y+1
	LDD  R27,Y+1+1
	RCALL _goto_row
	LDI  R17,LOW(0)
_0x7B:
	CPI  R17,8
	BRSH _0x7C
	LDD  R30,Y+5
	LDD  R31,Y+5+1
	CALL SUBOPT_0x1
	LPM  R26,Z
	RCALL _glcd_write
	SUBI R17,-1
	RJMP _0x7B
_0x7C:
	LDD  R17,Y+0
	RJMP _0x20A0006
; .FEND
_enlarge:
; .FSTART _enlarge
	ST   -Y,R26
	CALL __SAVELOCR4
;	*large -> Y+6
;	c -> Y+5
;	size -> Y+4
;	i -> R17
;	j -> R16
;	temp -> R19
;	k -> R18
	LDI  R18,0
	LDI  R17,LOW(0)
_0x7E:
	LDD  R30,Y+4
	CP   R17,R30
	BRSH _0x7F
	LDI  R16,LOW(0)
_0x81:
	CPI  R16,8
	BRSH _0x82
	CALL SUBOPT_0x2
	LSR  R30
	ST   X,R30
	LDD  R30,Y+5
	ANDI R30,LOW(0x1)
	MOV  R19,R30
	CPI  R19,0
	BREQ _0x83
	CALL SUBOPT_0x2
	ORI  R30,0x80
	ST   X,R30
_0x83:
	SUBI R18,-LOW(1)
	LDD  R30,Y+4
	CP   R30,R18
	BRNE _0x84
	LDD  R30,Y+5
	LSR  R30
	STD  Y+5,R30
	LDI  R18,LOW(0)
_0x84:
	SUBI R16,-1
	RJMP _0x81
_0x82:
	SUBI R17,-1
	RJMP _0x7E
_0x7F:
	CALL __LOADLOCR4
	ADIW R28,8
	RET
; .FEND
_putItSz:
; .FSTART _putItSz
	ST   -Y,R26
	SBIW R28,63
	SBIW R28,1
	CALL __SAVELOCR4
;	c -> Y+73
;	x -> Y+71
;	y -> Y+69
;	sz -> Y+68
;	i -> R17
;	j -> R16
;	k -> R19
;	large -> Y+4
	CALL SUBOPT_0x3
	RCALL _goto_col
	__GETW2SX 69
	RCALL _goto_row
	LDI  R17,LOW(0)
_0x86:
	CPI  R17,8
	BRSH _0x87
	CALL SUBOPT_0x4
	ADD  R30,R26
	ADC  R31,R27
	ST   -Y,R31
	ST   -Y,R30
	__GETW1SX 75
	CALL SUBOPT_0x1
	LPM  R30,Z
	ST   -Y,R30
	__GETB2SX 71
	RCALL _enlarge
	SUBI R17,-1
	RJMP _0x86
_0x87:
	LDI  R16,LOW(0)
_0x89:
	__GETB1SX 68
	CP   R16,R30
	BRLO PC+2
	RJMP _0x8A
	LDI  R17,LOW(0)
_0x8C:
	CPI  R17,8
	BRSH _0x8D
	LDI  R19,LOW(0)
_0x8F:
	__GETB1SX 68
	CP   R19,R30
	BRSH _0x90
	MOV  R30,R19
	LDI  R31,0
	CALL SUBOPT_0x3
	ADD  R30,R26
	ADC  R31,R27
	MOVW R22,R30
	__GETB2SX 68
	CLR  R27
	MOV  R30,R17
	LDI  R31,0
	CALL __MULW12
	MOVW R26,R22
	ADD  R26,R30
	ADC  R27,R31
	CPI  R26,LOW(0x40)
	LDI  R30,HIGH(0x40)
	CPC  R27,R30
	BRNE _0x91
	LDI  R30,LOW(64)
	LDI  R31,HIGH(64)
	ST   -Y,R31
	ST   -Y,R30
	CALL SUBOPT_0x3
	RCALL _goto_xy
_0x91:
	CALL SUBOPT_0x4
	ADD  R26,R30
	ADC  R27,R31
	CLR  R30
	ADD  R26,R16
	ADC  R27,R30
	LD   R26,X
	RCALL _glcd_write
	SUBI R19,-1
	RJMP _0x8F
_0x90:
	SUBI R17,-1
	RJMP _0x8C
_0x8D:
	__GETW1SX 71
	ST   -Y,R31
	ST   -Y,R30
	MOVW R26,R28
	SUBI R26,LOW(-(71))
	SBCI R27,HIGH(-(71))
	LD   R30,X+
	LD   R31,X+
	ADIW R30,1
	ST   -X,R31
	ST   -X,R30
	MOVW R26,R30
	RCALL _goto_xy
	SUBI R16,-1
	RJMP _0x89
_0x8A:
	CALL __LOADLOCR4
	ADIW R28,63
	ADIW R28,12
	RET
; .FEND
_glcd_putchar:
; .FSTART _glcd_putchar
	ST   -Y,R26
;	c -> Y+6
;	x -> Y+4
;	y -> Y+2
;	l -> Y+1
;	sz -> Y+0
	LDD  R26,Y+1
	CPI  R26,LOW(0x1)
	BREQ PC+2
	RJMP _0x92
	LDD  R30,Y+6
	LDI  R31,0
	CPI  R30,LOW(0x81)
	LDI  R26,HIGH(0x81)
	CPC  R31,R26
	BRNE _0x96
	LDI  R30,LOW(250)
	RJMP _0x1C8
_0x96:
	CPI  R30,LOW(0x90)
	LDI  R26,HIGH(0x90)
	CPC  R31,R26
	BRNE _0x97
	LDI  R30,LOW(251)
	RJMP _0x1C8
_0x97:
	CPI  R30,LOW(0x98)
	LDI  R26,HIGH(0x98)
	CPC  R31,R26
	BRNE _0x98
	LDI  R30,LOW(252)
	RJMP _0x1C8
_0x98:
	CPI  R30,LOW(0x8E)
	LDI  R26,HIGH(0x8E)
	CPC  R31,R26
	BRNE _0x99
	LDI  R30,LOW(253)
	RJMP _0x1C8
_0x99:
	CPI  R30,LOW(0x8D)
	LDI  R26,HIGH(0x8D)
	CPC  R31,R26
	BRNE _0x95
	LDI  R30,LOW(254)
_0x1C8:
	STD  Y+6,R30
_0x95:
	LDD  R26,Y+6
	CPI  R26,LOW(0xC1)
	BRLO _0x9C
	LDS  R26,_prevLet_G000
	LDS  R27,_prevLet_G000+1
	CPI  R26,LOW(0xC1)
	LDI  R30,HIGH(0xC1)
	CPC  R27,R30
	BRLT _0x9C
	CALL SUBOPT_0x5
	ADIW R30,5
	LPM  R30,Z
	CPI  R30,0
	BREQ _0x9C
	CALL SUBOPT_0x6
	ADIW R30,4
	LPM  R30,Z
	CPI  R30,0
	BRNE _0x9D
_0x9C:
	RJMP _0x9B
_0x9D:
	CALL SUBOPT_0x5
	MOVW R26,R30
	LDS  R30,_stat_G000
	LDI  R31,0
	ADIW R30,1
	ADD  R30,R26
	ADC  R31,R27
	LPM  R30,Z
	LDI  R31,0
	ST   -Y,R31
	ST   -Y,R30
	LDS  R30,_prevX_G000
	LDI  R31,0
	ST   -Y,R31
	ST   -Y,R30
	LDS  R26,_prevY_G000
	CLR  R27
	RCALL _putIt
	LDI  R30,LOW(2)
	RJMP _0x1C9
_0x9B:
	LDI  R30,LOW(0)
_0x1C9:
	STS  _stat_G000,R30
	LDD  R26,Y+6
	CPI  R26,LOW(0xC1)
	BRLO _0x9F
	CALL SUBOPT_0x6
	MOVW R26,R30
	LDS  R30,_stat_G000
	LDI  R31,0
	ADD  R30,R26
	ADC  R31,R27
	LPM  R30,Z
	RJMP _0x1CA
_0x9F:
	LDD  R30,Y+6
_0x1CA:
	LDI  R31,0
	CALL SUBOPT_0x7
	CALL SUBOPT_0x7
	ST   -Y,R31
	ST   -Y,R30
	LDD  R26,Y+6
	RCALL _putItSz
	LDD  R30,Y+6
	LDI  R31,0
	STS  _prevLet_G000,R30
	STS  _prevLet_G000+1,R31
	LDD  R30,Y+4
	STS  _prevX_G000,R30
	LDD  R30,Y+2
	STS  _prevY_G000,R30
	RJMP _0xA1
_0x92:
	LDD  R30,Y+6
	LDI  R31,0
	CALL SUBOPT_0x7
	CALL SUBOPT_0x7
	ST   -Y,R31
	ST   -Y,R30
	LDD  R26,Y+6
	RCALL _putItSz
_0xA1:
_0x20A0006:
	ADIW R28,7
	RET
; .FEND
_glcd_puts:
; .FSTART _glcd_puts
	ST   -Y,R26
	ST   -Y,R17
	ST   -Y,R16
;	*c -> Y+9
;	x -> Y+7
;	y -> Y+5
;	l -> Y+4
;	sz -> Y+3
;	space -> Y+2
;	i -> R17
;	special -> R16
	LDI  R17,0
	LDI  R16,0
_0xA2:
	CALL SUBOPT_0x8
	BRSH _0xA5
	LDD  R26,Y+4
	CPI  R26,LOW(0x0)
	BREQ _0xA6
_0xA5:
	RJMP _0xA4
_0xA6:
	CALL SUBOPT_0x9
	LD   R30,X
	ST   -Y,R30
	CALL SUBOPT_0xA
	CALL SUBOPT_0xA
	LDI  R30,LOW(0)
	CALL SUBOPT_0xB
	CALL SUBOPT_0xC
	LDD  R26,Y+7
	LDD  R27,Y+7+1
	ADD  R30,R26
	ADC  R31,R27
	STD  Y+7,R30
	STD  Y+7+1,R31
	CALL SUBOPT_0xD
	LDI  R26,LOW(128)
	LDI  R27,HIGH(128)
	CALL __SWAPW12
	SUB  R30,R26
	SBC  R31,R27
	LDD  R26,Y+7
	LDD  R27,Y+7+1
	CP   R30,R26
	CPC  R31,R27
	BRGE _0xA7
	LDI  R30,LOW(0)
	STD  Y+7,R30
	STD  Y+7+1,R30
	CALL SUBOPT_0xE
_0xA7:
	SUBI R17,-1
	RJMP _0xA2
_0xA4:
_0xA8:
	CALL SUBOPT_0x8
	BRSH _0xAB
	LDD  R26,Y+4
	CPI  R26,LOW(0x1)
	BREQ _0xAC
_0xAB:
	RJMP _0xAA
_0xAC:
	CALL SUBOPT_0x9
	LD   R26,X
	CPI  R26,LOW(0xE1)
	BRNE _0xAE
	CALL SUBOPT_0xF
	CPI  R26,LOW(0xC7)
	BREQ _0xAF
_0xAE:
	RJMP _0xAD
_0xAF:
	LDI  R16,LOW(249)
	RJMP _0xB0
_0xAD:
	CALL SUBOPT_0x9
	LD   R26,X
	CPI  R26,LOW(0xE1)
	BRNE _0xB2
	CALL SUBOPT_0xF
	CPI  R26,LOW(0xC3)
	BREQ _0xB3
_0xB2:
	RJMP _0xB1
_0xB3:
	LDI  R16,LOW(231)
	RJMP _0xB4
_0xB1:
	CALL SUBOPT_0x9
	LD   R26,X
	CPI  R26,LOW(0xE1)
	BRNE _0xB6
	CALL SUBOPT_0xF
	CPI  R26,LOW(0xC2)
	BREQ _0xB7
_0xB6:
	RJMP _0xB5
_0xB7:
	LDI  R16,LOW(232)
	RJMP _0xB8
_0xB5:
	CALL SUBOPT_0x9
	LD   R26,X
	CPI  R26,LOW(0xE1)
	BRNE _0xBA
	CALL SUBOPT_0xF
	CPI  R26,LOW(0xC5)
	BREQ _0xBB
_0xBA:
	RJMP _0xB9
_0xBB:
	LDI  R16,LOW(233)
_0xB9:
_0xB8:
_0xB4:
_0xB0:
	CPI  R16,0
	BREQ _0xBC
	ST   -Y,R16
	CALL SUBOPT_0x10
	LDI  R30,LOW(1)
	CALL SUBOPT_0xB
	SUBI R17,-LOW(2)
	CALL SUBOPT_0xD
	LDD  R26,Y+7
	LDD  R27,Y+7+1
	CALL SUBOPT_0x11
	LDI  R16,LOW(0)
	RJMP _0xBD
_0xBC:
	CALL SUBOPT_0x9
	LD   R30,X
	ST   -Y,R30
	CALL SUBOPT_0x10
	LDD  R30,Y+9
	CALL SUBOPT_0xB
	CALL SUBOPT_0x9
	LD   R26,X
	CPI  R26,LOW(0x20)
	BRNE _0xBE
	CALL SUBOPT_0xC
	RJMP _0x1CB
_0xBE:
	CALL SUBOPT_0xD
_0x1CB:
	LDD  R26,Y+7
	LDD  R27,Y+7+1
	CALL SUBOPT_0x11
	SUBI R17,-1
_0xBD:
	CALL SUBOPT_0xD
	ADIW R30,1
	LDD  R26,Y+7
	LDD  R27,Y+7+1
	CP   R26,R30
	CPC  R27,R31
	BRGE _0xC0
	CALL SUBOPT_0xD
	LDI  R26,LOW(128)
	LDI  R27,HIGH(128)
	CALL SUBOPT_0x11
	CALL SUBOPT_0xE
_0xC0:
	RJMP _0xA8
_0xAA:
	LDI  R30,LOW(193)
	LDI  R31,HIGH(193)
	STS  _prevLet_G000,R30
	STS  _prevLet_G000+1,R31
	LDD  R17,Y+1
	LDD  R16,Y+0
	ADIW R28,11
	RET
; .FEND
;	*bmp -> Y+12
;	x1 -> Y+10
;	y1 -> Y+8
;	x2 -> Y+6
;	y2 -> Y+4
;	i -> R16,R17
;	j -> R18,R19
;#include "Includes/seq2.h"
;//#include "Includes/font5x7.h"
;
;void TX_ON(unsigned int boud,unsigned char fosc)
; 0000 0013 
; 0000 0014 {
; 0000 0015 unsigned char x;
; 0000 0016 x=fosc/(0.000064*boud);
;	boud -> Y+2
;	fosc -> Y+1
;	x -> R17
; 0000 0017 x-=1;
; 0000 0018 UBRRL=x;
; 0000 0019 UBRRH=x>>8;
; 0000 001A UCSRB |=(1 << TXEN);
; 0000 001B UCSRC |= (1 << URSEL) | (1 << UCSZ0) | (1 << UCSZ1);
; 0000 001C }
;
;
;void tx_putc(unsigned char send)
; 0000 0020 {
; 0000 0021 while ((UCSRA & (1 << UDRE)) == 0);
;	send -> Y+0
; 0000 0022 UDR = send;
; 0000 0023 }
;
;int key(void)
; 0000 0026 {   while(1){
_key:
; .FSTART _key
_0xCA:
; 0000 0027     DDRB=0x00;
	LDI  R30,LOW(0)
	OUT  0x17,R30
; 0000 0028     DDRC.7=0;
	CBI  0x14,7
; 0000 0029     PORTB=0X0f;
	LDI  R30,LOW(15)
	OUT  0x18,R30
; 0000 002A     DDRB=0b00010000; //«⁄„«· Ê· «é ’›— »Â ” Ê‰ Ìò »« Œ—ÊÃÌ ò—œ‰ Å«ÌÂ „Ê—œ ‰Ÿ—
	LDI  R30,LOW(16)
	OUT  0x17,R30
; 0000 002B 
; 0000 002C     if(PINB.0==0)return 1;
	SBIC 0x16,0
	RJMP _0xCF
	LDI  R30,LOW(1)
	LDI  R31,HIGH(1)
	RET
; 0000 002D     if(PINB.1==0)return 5;
_0xCF:
	SBIC 0x16,1
	RJMP _0xD0
	LDI  R30,LOW(5)
	LDI  R31,HIGH(5)
	RET
; 0000 002E     if(PINB.2==0)return 9;
_0xD0:
	SBIC 0x16,2
	RJMP _0xD1
	LDI  R30,LOW(9)
	LDI  R31,HIGH(9)
	RET
; 0000 002F     if(PINB.3==0)return 13;
_0xD1:
	SBIC 0x16,3
	RJMP _0xD2
	LDI  R30,LOW(13)
	LDI  R31,HIGH(13)
	RET
; 0000 0030 
; 0000 0031     DDRB=0b00100000;
_0xD2:
	LDI  R30,LOW(32)
	OUT  0x17,R30
; 0000 0032     if(PINB.0==0)return 2;
	SBIC 0x16,0
	RJMP _0xD3
	LDI  R30,LOW(2)
	LDI  R31,HIGH(2)
	RET
; 0000 0033     if(PINB.1==0)return 6;
_0xD3:
	SBIC 0x16,1
	RJMP _0xD4
	LDI  R30,LOW(6)
	LDI  R31,HIGH(6)
	RET
; 0000 0034     if(PINB.2==0)return 10;
_0xD4:
	SBIC 0x16,2
	RJMP _0xD5
	LDI  R30,LOW(10)
	LDI  R31,HIGH(10)
	RET
; 0000 0035     if(PINB.3==0)return 14;
_0xD5:
	SBIC 0x16,3
	RJMP _0xD6
	LDI  R30,LOW(14)
	LDI  R31,HIGH(14)
	RET
; 0000 0036 
; 0000 0037     DDRB=0b01000000;
_0xD6:
	LDI  R30,LOW(64)
	OUT  0x17,R30
; 0000 0038     if(PINB.0==0)return 3;
	SBIC 0x16,0
	RJMP _0xD7
	LDI  R30,LOW(3)
	LDI  R31,HIGH(3)
	RET
; 0000 0039     if(PINB.1==0)return 7;
_0xD7:
	SBIC 0x16,1
	RJMP _0xD8
	LDI  R30,LOW(7)
	LDI  R31,HIGH(7)
	RET
; 0000 003A     if(PINB.2==0)return 11;
_0xD8:
	SBIC 0x16,2
	RJMP _0xD9
	LDI  R30,LOW(11)
	LDI  R31,HIGH(11)
	RET
; 0000 003B     if(PINB.3==0)return 15;
_0xD9:
	SBIC 0x16,3
	RJMP _0xDA
	LDI  R30,LOW(15)
	LDI  R31,HIGH(15)
	RET
; 0000 003C 
; 0000 003D     DDRB=0b10000000;
_0xDA:
	LDI  R30,LOW(128)
	OUT  0x17,R30
; 0000 003E     if(PINB.0==0)return 4;
	SBIC 0x16,0
	RJMP _0xDB
	LDI  R30,LOW(4)
	LDI  R31,HIGH(4)
	RET
; 0000 003F     if(PINB.1==0)return 8;
_0xDB:
	SBIC 0x16,1
	RJMP _0xDC
	LDI  R30,LOW(8)
	LDI  R31,HIGH(8)
	RET
; 0000 0040     if(PINB.2==0)return 12;
_0xDC:
	SBIC 0x16,2
	RJMP _0xDD
	LDI  R30,LOW(12)
	LDI  R31,HIGH(12)
	RET
; 0000 0041     if(PINB.3==0)return 16;
_0xDD:
	SBIC 0x16,3
	RJMP _0xDE
	LDI  R30,LOW(16)
	LDI  R31,HIGH(16)
	RET
; 0000 0042 
; 0000 0043     DDRC.7=1;
_0xDE:
	SBI  0x14,7
; 0000 0044     if(PINB.0==0)return 20;
	SBIC 0x16,0
	RJMP _0xE1
	LDI  R30,LOW(20)
	LDI  R31,HIGH(20)
	RET
; 0000 0045     if(PINB.1==0)return 21;
_0xE1:
	SBIC 0x16,1
	RJMP _0xE2
	LDI  R30,LOW(21)
	LDI  R31,HIGH(21)
	RET
; 0000 0046     if(PINB.2==0)return 22;
_0xE2:
	SBIC 0x16,2
	RJMP _0xE3
	LDI  R30,LOW(22)
	LDI  R31,HIGH(22)
	RET
; 0000 0047     if(PINB.3==0)return 23;
_0xE3:
	SBIC 0x16,3
	RJMP _0xE4
	LDI  R30,LOW(23)
	LDI  R31,HIGH(23)
	RET
; 0000 0048     //return 255;
; 0000 0049     }
_0xE4:
	RJMP _0xCA
; 0000 004A }
; .FEND
;int Namayesh_Kelid_Feshorde_SHode(int page)
; 0000 004C {   unsigned char str[] = "1-SELECT PATTERN";
_Namayesh_Kelid_Feshorde_SHode:
; .FSTART _Namayesh_Kelid_Feshorde_SHode
; 0000 004D     unsigned char str1[] = "2-DIFINE PATTERN";
; 0000 004E     unsigned char str2[] = "3-TEMPERATURE";
; 0000 004F     int y,x=1;
; 0000 0050     glcd_clear();
	ST   -Y,R27
	ST   -Y,R26
	SBIW R28,48
	LDI  R24,48
	LDI  R26,LOW(0)
	LDI  R27,HIGH(0)
	LDI  R30,LOW(_0xE5*2)
	LDI  R31,HIGH(_0xE5*2)
	CALL __INITLOCB
	CALL __SAVELOCR4
;	page -> Y+52
;	str -> Y+35
;	str1 -> Y+18
;	str2 -> Y+4
;	y -> R16,R17
;	x -> R18,R19
	__GETWRN 18,19,1
	RCALL _glcd_clear
; 0000 0051     glcd_puts(str,0,1,0,1,0);
	MOVW R30,R28
	ADIW R30,35
	CALL SUBOPT_0x12
	CALL SUBOPT_0x13
; 0000 0052     glcd_puts(str1,0,3,0,1,0);     //put another English string at column 5,row 3
	CALL SUBOPT_0x14
	CALL SUBOPT_0x15
; 0000 0053     glcd_puts(str2,0,5,0,1,0);   //Put an Arabic string at column 15,row 6
	MOVW R30,R28
	ADIW R30,4
	CALL SUBOPT_0x12
	CALL SUBOPT_0x16
; 0000 0054     //while(1){
; 0000 0055     y = key();
	CALL SUBOPT_0x17
; 0000 0056     //}
; 0000 0057     if(y == 1) {
	BRNE _0xE6
; 0000 0058 
; 0000 0059         page=12;
	LDI  R30,LOW(12)
	LDI  R31,HIGH(12)
	CALL SUBOPT_0x18
; 0000 005A         return page;
	RJMP _0x20A0005
; 0000 005B         delay_ms(250);}
; 0000 005C     if(y == 2) {
_0xE6:
	CALL SUBOPT_0x1A
	BRNE _0xE7
; 0000 005D          page=22;
	LDI  R30,LOW(22)
	LDI  R31,HIGH(22)
	CALL SUBOPT_0x18
; 0000 005E          return page;
	RJMP _0x20A0005
; 0000 005F          delay_ms(250);}
; 0000 0060     if(y == 3) {
_0xE7:
	CALL SUBOPT_0x1B
	BRNE _0xE8
; 0000 0061          page=32;
	LDI  R30,LOW(32)
	LDI  R31,HIGH(32)
	CALL SUBOPT_0x18
; 0000 0062          return page;
; 0000 0063          delay_ms(250);}
; 0000 0064 
; 0000 0065 
; 0000 0066 }
_0xE8:
_0x20A0005:
	CALL __LOADLOCR4
	ADIW R28,54
	RET
; .FEND
;int Namayesh_Kelid_Feshorde_SHode2(int page)
; 0000 0068 {   unsigned char str3[] = "1-PATTERN1";
_Namayesh_Kelid_Feshorde_SHode2:
; .FSTART _Namayesh_Kelid_Feshorde_SHode2
; 0000 0069     unsigned char str4[] = "2-PATTERN2";
; 0000 006A     unsigned char str5[] = "3-PATTERN3";
; 0000 006B     unsigned char str6[] = "4-PATTERN4";
; 0000 006C     unsigned char str7[] = "5-PATTERN5";
; 0000 006D     unsigned char str8[] = "6-PATTERN6";
; 0000 006E     unsigned char str9[] = "7-PATTERN7";
; 0000 006F     unsigned char str10[] = "8-PATTERN8";
; 0000 0070     unsigned char home[] = "HOME";
; 0000 0071     int y;
; 0000 0072     glcd_clear();
	CALL SUBOPT_0x1C
	LDI  R30,LOW(_0xE9*2)
	LDI  R31,HIGH(_0xE9*2)
	CALL __INITLOCB
	CALL SUBOPT_0x1D
;	page -> Y+95
;	str3 -> Y+84
;	str4 -> Y+73
;	str5 -> Y+62
;	str6 -> Y+51
;	str7 -> Y+40
;	str8 -> Y+29
;	str9 -> Y+18
;	str10 -> Y+7
;	home -> Y+2
;	y -> R16,R17
; 0000 0073     glcd_puts(str3,0,0,0,1,0);
	CALL SUBOPT_0x0
	CALL SUBOPT_0x1E
; 0000 0074     glcd_puts(str4,0,1,0,1,0);
	MOVW R30,R28
	SUBI R30,LOW(-(73))
	SBCI R31,HIGH(-(73))
	CALL SUBOPT_0x12
	CALL SUBOPT_0x13
; 0000 0075     glcd_puts(str5,0,2,0,1,0);
	MOVW R30,R28
	ADIW R30,62
	CALL SUBOPT_0x12
	CALL SUBOPT_0x1F
; 0000 0076     glcd_puts(str6,0,3,0,1,0);
	MOVW R30,R28
	ADIW R30,51
	CALL SUBOPT_0x12
	CALL SUBOPT_0x15
; 0000 0077     glcd_puts(str7,0,4,0,1,0);
	MOVW R30,R28
	ADIW R30,40
	CALL SUBOPT_0x12
	CALL SUBOPT_0x20
; 0000 0078     glcd_puts(str8,0,5,0,1,0);
	MOVW R30,R28
	ADIW R30,29
	CALL SUBOPT_0x12
	CALL SUBOPT_0x16
; 0000 0079     glcd_puts(str9,0,6,0,1,0);
	CALL SUBOPT_0x14
	CALL SUBOPT_0x21
; 0000 007A     glcd_puts(str10,0,7,0,1,0);
	CALL SUBOPT_0x22
	CALL SUBOPT_0x23
; 0000 007B     glcd_puts(home,0,0,1,1,0);
	MOVW R30,R28
	ADIW R30,2
	CALL SUBOPT_0x12
	CALL SUBOPT_0x0
	CALL SUBOPT_0x24
; 0000 007C     y = key();
; 0000 007D     if(y == 1) {
	BRNE _0xEA
; 0000 007E         unsigned char a[]="100000000000000000000000";
; 0000 007F         puts(a);
	CALL SUBOPT_0x25
	LDI  R30,LOW(_0xEB*2)
	LDI  R31,HIGH(_0xEB*2)
	CALL __INITLOCB
;	page -> Y+120
;	str3 -> Y+109
;	str4 -> Y+98
;	str5 -> Y+87
;	str6 -> Y+76
;	str7 -> Y+65
;	str8 -> Y+54
;	str9 -> Y+43
;	str10 -> Y+32
;	home -> Y+27
;	a -> Y+0
	CALL SUBOPT_0x26
; 0000 0080         //putsf("10000000/r");
; 0000 0081         //while(y==1);
; 0000 0082          page=12;
; 0000 0083          return page;
	RJMP _0x20A0004
; 0000 0084 
; 0000 0085 
; 0000 0086         delay_ms(250);}
; 0000 0087     if(y == 2) {
_0xEA:
	CALL SUBOPT_0x1A
	BRNE _0xEC
; 0000 0088          unsigned char a[]="100100000000000000000000";
; 0000 0089          puts(a);
	CALL SUBOPT_0x25
	LDI  R30,LOW(_0xED*2)
	LDI  R31,HIGH(_0xED*2)
	CALL __INITLOCB
;	page -> Y+120
;	str3 -> Y+109
;	str4 -> Y+98
;	str5 -> Y+87
;	str6 -> Y+76
;	str7 -> Y+65
;	str8 -> Y+54
;	str9 -> Y+43
;	str10 -> Y+32
;	home -> Y+27
;	a -> Y+0
	CALL SUBOPT_0x26
; 0000 008A          //putsf("10010000/r");
; 0000 008B          //while(y==2);
; 0000 008C          page=12;
; 0000 008D          return page;
	RJMP _0x20A0004
; 0000 008E 
; 0000 008F          delay_ms(250);}
; 0000 0090     if(y == 3) {
_0xEC:
	CALL SUBOPT_0x1B
	BRNE _0xEE
; 0000 0091          unsigned char a[]="101000000000000000000000";
; 0000 0092          puts(a);
	CALL SUBOPT_0x25
	LDI  R30,LOW(_0xEF*2)
	LDI  R31,HIGH(_0xEF*2)
	CALL __INITLOCB
;	page -> Y+120
;	str3 -> Y+109
;	str4 -> Y+98
;	str5 -> Y+87
;	str6 -> Y+76
;	str7 -> Y+65
;	str8 -> Y+54
;	str9 -> Y+43
;	str10 -> Y+32
;	home -> Y+27
;	a -> Y+0
	CALL SUBOPT_0x26
; 0000 0093          //putsf("10100000/r");
; 0000 0094          //while(y==3);
; 0000 0095          page=12;
; 0000 0096          return page;
	RJMP _0x20A0004
; 0000 0097          delay_ms(250);}
; 0000 0098     if(y == 4) {
_0xEE:
	LDI  R30,LOW(4)
	LDI  R31,HIGH(4)
	CP   R30,R16
	CPC  R31,R17
	BRNE _0xF0
; 0000 0099          unsigned char a[]="101100000000000000000000";
; 0000 009A          puts(a);
	CALL SUBOPT_0x25
	LDI  R30,LOW(_0xF1*2)
	LDI  R31,HIGH(_0xF1*2)
	CALL __INITLOCB
;	page -> Y+120
;	str3 -> Y+109
;	str4 -> Y+98
;	str5 -> Y+87
;	str6 -> Y+76
;	str7 -> Y+65
;	str8 -> Y+54
;	str9 -> Y+43
;	str10 -> Y+32
;	home -> Y+27
;	a -> Y+0
	CALL SUBOPT_0x26
; 0000 009B          //putsf("10110000/r");
; 0000 009C          //while(y==4);
; 0000 009D          page=12;
; 0000 009E          return page;
	RJMP _0x20A0004
; 0000 009F          delay_ms(250);}
; 0000 00A0     if(y == 5) {
_0xF0:
	LDI  R30,LOW(5)
	LDI  R31,HIGH(5)
	CP   R30,R16
	CPC  R31,R17
	BRNE _0xF2
; 0000 00A1          unsigned char a[]="110000000000000000000000";
; 0000 00A2          puts(a);
	CALL SUBOPT_0x25
	LDI  R30,LOW(_0xF3*2)
	LDI  R31,HIGH(_0xF3*2)
	CALL __INITLOCB
;	page -> Y+120
;	str3 -> Y+109
;	str4 -> Y+98
;	str5 -> Y+87
;	str6 -> Y+76
;	str7 -> Y+65
;	str8 -> Y+54
;	str9 -> Y+43
;	str10 -> Y+32
;	home -> Y+27
;	a -> Y+0
	CALL SUBOPT_0x26
; 0000 00A3          //putsf("11000000/r");
; 0000 00A4          //while(y==5);
; 0000 00A5          page=12;
; 0000 00A6          return page;
	RJMP _0x20A0004
; 0000 00A7          delay_ms(250);}
; 0000 00A8     if(y == 6) {
_0xF2:
	LDI  R30,LOW(6)
	LDI  R31,HIGH(6)
	CP   R30,R16
	CPC  R31,R17
	BRNE _0xF4
; 0000 00A9          unsigned char a[]="110100000000000000000000";
; 0000 00AA          puts(a);
	CALL SUBOPT_0x25
	LDI  R30,LOW(_0xF5*2)
	LDI  R31,HIGH(_0xF5*2)
	CALL __INITLOCB
;	page -> Y+120
;	str3 -> Y+109
;	str4 -> Y+98
;	str5 -> Y+87
;	str6 -> Y+76
;	str7 -> Y+65
;	str8 -> Y+54
;	str9 -> Y+43
;	str10 -> Y+32
;	home -> Y+27
;	a -> Y+0
	CALL SUBOPT_0x26
; 0000 00AB          //putsf("11010000/r");
; 0000 00AC          //while(y==6);
; 0000 00AD          page=12;
; 0000 00AE          return page;
	RJMP _0x20A0004
; 0000 00AF          delay_ms(250);}
; 0000 00B0     if(y == 7) {
_0xF4:
	LDI  R30,LOW(7)
	LDI  R31,HIGH(7)
	CP   R30,R16
	CPC  R31,R17
	BRNE _0xF6
; 0000 00B1          unsigned char a[]="111000000000000000000000";
; 0000 00B2          puts(a);
	CALL SUBOPT_0x25
	LDI  R30,LOW(_0xF7*2)
	LDI  R31,HIGH(_0xF7*2)
	CALL __INITLOCB
;	page -> Y+120
;	str3 -> Y+109
;	str4 -> Y+98
;	str5 -> Y+87
;	str6 -> Y+76
;	str7 -> Y+65
;	str8 -> Y+54
;	str9 -> Y+43
;	str10 -> Y+32
;	home -> Y+27
;	a -> Y+0
	CALL SUBOPT_0x26
; 0000 00B3          //putsf("11100000/r");
; 0000 00B4          //while(y==7);
; 0000 00B5          page=12;
; 0000 00B6          return page;
	RJMP _0x20A0004
; 0000 00B7          delay_ms(250);}
; 0000 00B8     if(y == 8) {
_0xF6:
	LDI  R30,LOW(8)
	LDI  R31,HIGH(8)
	CP   R30,R16
	CPC  R31,R17
	BRNE _0xF8
; 0000 00B9          unsigned char a[]="111100000000000000000000";
; 0000 00BA          puts(a);
	CALL SUBOPT_0x25
	LDI  R30,LOW(_0xF9*2)
	LDI  R31,HIGH(_0xF9*2)
	CALL __INITLOCB
;	page -> Y+120
;	str3 -> Y+109
;	str4 -> Y+98
;	str5 -> Y+87
;	str6 -> Y+76
;	str7 -> Y+65
;	str8 -> Y+54
;	str9 -> Y+43
;	str10 -> Y+32
;	home -> Y+27
;	a -> Y+0
	CALL SUBOPT_0x26
; 0000 00BB          //putsf("11110000/r");
; 0000 00BC          //while(y==8);
; 0000 00BD          page=12;
; 0000 00BE          return page;
	RJMP _0x20A0004
; 0000 00BF          delay_ms(250);}
; 0000 00C0     if(y == 23) {
_0xF8:
	LDI  R30,LOW(23)
	LDI  R31,HIGH(23)
	CP   R30,R16
	CPC  R31,R17
	BRNE _0xFA
; 0000 00C1          page=1;
	CALL SUBOPT_0x27
; 0000 00C2          return page;
; 0000 00C3          delay_ms(250);}
; 0000 00C4 
; 0000 00C5 
; 0000 00C6 
; 0000 00C7 }
_0xFA:
_0x20A0004:
	LDD  R17,Y+1
	LDD  R16,Y+0
	ADIW R28,63
	ADIW R28,34
	RET
; .FEND
;void show_pattern(unsigned char a[]){
; 0000 00C8 void show_pattern(unsigned char a[]){
_show_pattern:
; .FSTART _show_pattern
; 0000 00C9 
; 0000 00CA     unsigned int x=0,y=20,i;
; 0000 00CB     unsigned char b='8';
; 0000 00CC     glcd_clear();
	ST   -Y,R27
	ST   -Y,R26
	SBIW R28,1
	LDI  R30,LOW(56)
	ST   Y,R30
	CALL __SAVELOCR6
;	a -> Y+7
;	x -> R16,R17
;	y -> R18,R19
;	i -> R20,R21
;	b -> Y+6
	__GETWRN 16,17,0
	__GETWRN 18,19,20
	RCALL _glcd_clear
; 0000 00CD     for(i=1;i<17;i++){
	__GETWRN 20,21,1
_0xFC:
	__CPWRN 20,21,17
	BRSH _0xFD
; 0000 00CE     glcd_putchar(a[i],y,x,1, 1);
	MOVW R30,R20
	LDD  R26,Y+7
	LDD  R27,Y+7+1
	ADD  R26,R30
	ADC  R27,R31
	LD   R30,X
	ST   -Y,R30
	ST   -Y,R19
	ST   -Y,R18
	ST   -Y,R17
	ST   -Y,R16
	LDI  R30,LOW(1)
	ST   -Y,R30
	LDI  R26,LOW(1)
	RCALL _glcd_putchar
; 0000 00CF     y=y+10;
	__ADDWRN 18,19,10
; 0000 00D0     if(y==60){
	LDI  R30,LOW(60)
	LDI  R31,HIGH(60)
	CP   R30,R18
	CPC  R31,R19
	BRNE _0xFE
; 0000 00D1       x=x+2;
	__ADDWRN 16,17,2
; 0000 00D2       y=20;
	__GETWRN 18,19,20
; 0000 00D3     }
; 0000 00D4     }
_0xFE:
	__ADDWRN 20,21,1
	RJMP _0xFC
_0xFD:
; 0000 00D5 }
	CALL __LOADLOCR6
	ADIW R28,9
	RET
; .FEND
;
;int Namayesh_Kelid_Feshorde_SHode3(int page)
; 0000 00D8 {   unsigned char str3[] = "1-PATTERN1";
_Namayesh_Kelid_Feshorde_SHode3:
; .FSTART _Namayesh_Kelid_Feshorde_SHode3
; 0000 00D9     unsigned char str4[] = "2-PATTERN2";
; 0000 00DA     unsigned char str5[] = "3-PATTERN3";
; 0000 00DB     unsigned char str6[] = "4-PATTERN4";
; 0000 00DC     unsigned char str7[] = "5-PATTERN5";
; 0000 00DD     unsigned char str8[] = "6-PATTERN6";
; 0000 00DE     unsigned char str9[] = "7-PATTERN7";
; 0000 00DF     unsigned char str10[] = "8-PATTERN8";
; 0000 00E0     unsigned char home[] = "HOME";
; 0000 00E1     int y;
; 0000 00E2     glcd_clear();
	CALL SUBOPT_0x1C
	LDI  R30,LOW(_0xFF*2)
	LDI  R31,HIGH(_0xFF*2)
	CALL __INITLOCB
	CALL SUBOPT_0x1D
;	page -> Y+95
;	str3 -> Y+84
;	str4 -> Y+73
;	str5 -> Y+62
;	str6 -> Y+51
;	str7 -> Y+40
;	str8 -> Y+29
;	str9 -> Y+18
;	str10 -> Y+7
;	home -> Y+2
;	y -> R16,R17
; 0000 00E3     glcd_puts(str3,0,0,0,1,0);
	CALL SUBOPT_0x0
	CALL SUBOPT_0x1E
; 0000 00E4     glcd_puts(str4,0,1,0,1,0);
	MOVW R30,R28
	SUBI R30,LOW(-(73))
	SBCI R31,HIGH(-(73))
	CALL SUBOPT_0x12
	CALL SUBOPT_0x13
; 0000 00E5     glcd_puts(str5,0,2,0,1,0);
	MOVW R30,R28
	ADIW R30,62
	CALL SUBOPT_0x12
	CALL SUBOPT_0x1F
; 0000 00E6     glcd_puts(str6,0,3,0,1,0);
	MOVW R30,R28
	ADIW R30,51
	CALL SUBOPT_0x12
	CALL SUBOPT_0x15
; 0000 00E7     glcd_puts(str7,0,4,0,1,0);
	MOVW R30,R28
	ADIW R30,40
	CALL SUBOPT_0x12
	CALL SUBOPT_0x20
; 0000 00E8     glcd_puts(str8,0,5,0,1,0);
	MOVW R30,R28
	ADIW R30,29
	CALL SUBOPT_0x12
	CALL SUBOPT_0x16
; 0000 00E9     glcd_puts(str9,0,6,0,1,0);
	CALL SUBOPT_0x14
	CALL SUBOPT_0x21
; 0000 00EA     glcd_puts(str10,0,7,0,1,0);
	CALL SUBOPT_0x22
	CALL SUBOPT_0x23
; 0000 00EB     glcd_puts(home,0,0,1,1,0);
	MOVW R30,R28
	ADIW R30,2
	CALL SUBOPT_0x12
	CALL SUBOPT_0x0
	CALL SUBOPT_0x24
; 0000 00EC     y = key();
; 0000 00ED     if(y == 1) {
	BREQ PC+2
	RJMP _0x100
; 0000 00EE         int z,w;
; 0000 00EF         unsigned char a[]="01111111111111111";
; 0000 00F0         unsigned char str3[] = "new";
; 0000 00F1         unsigned char str4[] = "select block";
; 0000 00F2         while(z!=22){
	CALL SUBOPT_0x28
	LDI  R30,LOW(_0x101*2)
	LDI  R31,HIGH(_0x101*2)
	CALL __INITLOCB
;	page -> Y+134
;	str3 -> Y+123
;	str4 -> Y+112
;	str5 -> Y+101
;	str6 -> Y+90
;	str7 -> Y+79
;	str8 -> Y+68
;	str9 -> Y+57
;	str10 -> Y+46
;	home -> Y+41
;	z -> Y+37
;	w -> Y+35
;	a -> Y+17
;	str3 -> Y+13
;	str4 -> Y+0
_0x102:
	LDD  R26,Y+37
	LDD  R27,Y+37+1
	SBIW R26,22
	BREQ _0x104
; 0000 00F3         show_pattern(a);
	CALL SUBOPT_0x29
; 0000 00F4         delay_ms(250);
; 0000 00F5         glcd_clear();
	CALL SUBOPT_0x2A
; 0000 00F6         glcd_puts(str3,0,0,0,1,0);
	CALL SUBOPT_0x0
	CALL SUBOPT_0x1E
; 0000 00F7         delay_ms(250);
	CALL SUBOPT_0x19
; 0000 00F8         //delay_ms(250);
; 0000 00F9 
; 0000 00FA         z = key();
	CALL SUBOPT_0x2B
; 0000 00FB         if(a[z]=='0'){
	BRNE _0x105
; 0000 00FC             a[z]='1';
	CALL SUBOPT_0x2C
	LDI  R30,LOW(49)
	RJMP _0x1CC
; 0000 00FD         }else{
_0x105:
; 0000 00FE             a[z]='0';
	CALL SUBOPT_0x2C
	LDI  R30,LOW(48)
_0x1CC:
	ST   X,R30
; 0000 00FF         }
; 0000 0100         //show_pattern(a);
; 0000 0101         }
	RJMP _0x102
_0x104:
; 0000 0102         glcd_clear();
	CALL SUBOPT_0x2D
; 0000 0103         glcd_puts(str4,0,0,0,1,0);
	CALL SUBOPT_0x0
	CALL SUBOPT_0x1E
; 0000 0104         delay_ms(250);
	CALL SUBOPT_0x19
; 0000 0105         w=key();
	CALL SUBOPT_0x2E
; 0000 0106         if(w==1){
	BRNE _0x107
; 0000 0107           a[17]='0';a[18]='0';a[19]='0';a[20]='0',a[21]='0',a[22]='0',a[23]='0';
	CALL SUBOPT_0x2F
	CALL SUBOPT_0x30
; 0000 0108           puts(a);
; 0000 0109           //putsf("00000000/r");
; 0000 010A           }
; 0000 010B         if(w==2){
_0x107:
	LDD  R26,Y+35
	LDD  R27,Y+35+1
	SBIW R26,2
	BRNE _0x108
; 0000 010C           a[17]='0';a[18]='0';a[19]='0';a[20]='0',a[21]='0',a[22]='0',a[23]='1';
	CALL SUBOPT_0x2F
	CALL SUBOPT_0x31
; 0000 010D           puts(a);
; 0000 010E           //putsf("00000001/r");
; 0000 010F         }
; 0000 0110         if(w==3) {
_0x108:
	LDD  R26,Y+35
	LDD  R27,Y+35+1
	SBIW R26,3
	BRNE _0x109
; 0000 0111           a[17]='0';a[18]='0';a[19]='0';a[20]='0',a[21]='0',a[22]='1',a[23]='0';
	CALL SUBOPT_0x32
	CALL SUBOPT_0x30
; 0000 0112           puts(a);
; 0000 0113           //putsf("00000010/r");
; 0000 0114         }
; 0000 0115         if(w==4){
_0x109:
	LDD  R26,Y+35
	LDD  R27,Y+35+1
	SBIW R26,4
	BRNE _0x10A
; 0000 0116           a[17]='0';a[18]='0';a[19]='0';a[20]='0',a[21]='0',a[22]='1',a[23]='1';
	CALL SUBOPT_0x32
	CALL SUBOPT_0x31
; 0000 0117           puts(a);
; 0000 0118           //putsf("00000011/r");
; 0000 0119         }
; 0000 011A         if(w==5){
_0x10A:
	LDD  R26,Y+35
	LDD  R27,Y+35+1
	SBIW R26,5
	BRNE _0x10B
; 0000 011B           a[17]='0';a[18]='0';a[19]='0';a[20]='0',a[21]='1',a[22]='0',a[23]='0';
	CALL SUBOPT_0x33
	CALL SUBOPT_0x30
; 0000 011C           puts(a);
; 0000 011D           //putsf("00000100/r");
; 0000 011E         }
; 0000 011F         if(w==6){
_0x10B:
	LDD  R26,Y+35
	LDD  R27,Y+35+1
	SBIW R26,6
	BRNE _0x10C
; 0000 0120           a[17]='0';a[18]='0';a[19]='0';a[20]='0',a[21]='1',a[22]='0',a[23]='1';
	CALL SUBOPT_0x33
	CALL SUBOPT_0x31
; 0000 0121           puts(a);
; 0000 0122           //putsf("00000101/r");
; 0000 0123         }
; 0000 0124         if(w==7){
_0x10C:
	LDD  R26,Y+35
	LDD  R27,Y+35+1
	SBIW R26,7
	BRNE _0x10D
; 0000 0125           a[17]='0';a[18]='0';a[19]='0';a[20]='0',a[21]='1',a[22]='1',a[23]='0';
	CALL SUBOPT_0x34
	CALL SUBOPT_0x30
; 0000 0126           puts(a);
; 0000 0127           //putsf("00000110/r");
; 0000 0128         }
; 0000 0129         if(w==8){
_0x10D:
	LDD  R26,Y+35
	LDD  R27,Y+35+1
	SBIW R26,8
	BRNE _0x10E
; 0000 012A           a[17]='0';a[18]='0';a[19]='0';a[20]='0',a[21]='1',a[22]='1',a[23]='1';
	CALL SUBOPT_0x34
	CALL SUBOPT_0x31
; 0000 012B           puts(a);
; 0000 012C           //putsf("00000111/r");
; 0000 012D         }
; 0000 012E         if(w==9){
_0x10E:
	LDD  R26,Y+35
	LDD  R27,Y+35+1
	SBIW R26,9
	BRNE _0x10F
; 0000 012F           a[17]='0';a[18]='0';a[19]='0';a[20]='1',a[21]='0',a[22]='0',a[23]='0';
	CALL SUBOPT_0x35
	CALL SUBOPT_0x30
; 0000 0130           puts(a);
; 0000 0131           //putsf("00001000/r");
; 0000 0132         }
; 0000 0133         if(w==10){
_0x10F:
	LDD  R26,Y+35
	LDD  R27,Y+35+1
	SBIW R26,10
	BRNE _0x110
; 0000 0134           a[17]='0';a[18]='0';a[19]='0';a[20]='1',a[21]='0',a[22]='0',a[23]='1';
	CALL SUBOPT_0x35
	CALL SUBOPT_0x31
; 0000 0135           puts(a);
; 0000 0136           //putsf("00001001/r");
; 0000 0137         }
; 0000 0138         if(w==11){
_0x110:
	LDD  R26,Y+35
	LDD  R27,Y+35+1
	SBIW R26,11
	BRNE _0x111
; 0000 0139           a[17]='0';a[18]='0';a[19]='0';a[20]='1',a[21]='0',a[22]='1',a[23]='0';
	CALL SUBOPT_0x36
	CALL SUBOPT_0x30
; 0000 013A           puts(a);
; 0000 013B           //putsf("00001010/r");
; 0000 013C         }
; 0000 013D         if(w==12){
_0x111:
	LDD  R26,Y+35
	LDD  R27,Y+35+1
	SBIW R26,12
	BRNE _0x112
; 0000 013E           a[17]='0';a[18]='0';a[19]='0';a[20]='1',a[21]='0',a[22]='1',a[23]='1';
	CALL SUBOPT_0x36
	CALL SUBOPT_0x31
; 0000 013F           puts(a);
; 0000 0140           //putsf("00001011/r");
; 0000 0141         }
; 0000 0142         if(w==13){
_0x112:
	LDD  R26,Y+35
	LDD  R27,Y+35+1
	SBIW R26,13
	BRNE _0x113
; 0000 0143           a[17]='0';a[18]='0';a[19]='0';a[20]='1',a[21]='1',a[22]='0',a[23]='0';
	CALL SUBOPT_0x37
	CALL SUBOPT_0x30
; 0000 0144           puts(a);
; 0000 0145           //putsf("00001100/r");
; 0000 0146         }
; 0000 0147         if(w==14){
_0x113:
	LDD  R26,Y+35
	LDD  R27,Y+35+1
	SBIW R26,14
	BRNE _0x114
; 0000 0148           a[17]='0';a[18]='0';a[19]='0';a[20]='1',a[21]='1',a[22]='0',a[23]='1';
	CALL SUBOPT_0x37
	CALL SUBOPT_0x31
; 0000 0149           puts(a);
; 0000 014A           //putsf("00001101/r");
; 0000 014B         }
; 0000 014C         if(w==15){
_0x114:
	LDD  R26,Y+35
	LDD  R27,Y+35+1
	SBIW R26,15
	BRNE _0x115
; 0000 014D           a[17]='0';a[18]='0';a[19]='0';a[20]='1',a[21]='1',a[22]='1',a[23]='0';
	CALL SUBOPT_0x38
	CALL SUBOPT_0x30
; 0000 014E           puts(a);
; 0000 014F           //putsf("00001110/r");
; 0000 0150         }
; 0000 0151         if(w==16){
_0x115:
	LDD  R26,Y+35
	LDD  R27,Y+35+1
	SBIW R26,16
	BRNE _0x116
; 0000 0152           a[17]='0';a[18]='0';a[19]='0';a[20]='1',a[21]='1',a[22]='1',a[23]='1';
	CALL SUBOPT_0x38
	CALL SUBOPT_0x31
; 0000 0153           puts(a);
; 0000 0154           //putsf("00001111/r");
; 0000 0155         }
; 0000 0156         delay_ms(250);}
_0x116:
	CALL SUBOPT_0x19
	ADIW R28,39
; 0000 0157     if(y == 2) {
_0x100:
	CALL SUBOPT_0x1A
	BREQ PC+2
	RJMP _0x117
; 0000 0158          int z,w;
; 0000 0159          unsigned char a[]="00101010101010101";
; 0000 015A          unsigned char str3[] = "new";
; 0000 015B         unsigned char str4[] = "select block";
; 0000 015C         while(z!=22){
	CALL SUBOPT_0x28
	LDI  R30,LOW(_0x118*2)
	LDI  R31,HIGH(_0x118*2)
	CALL __INITLOCB
;	page -> Y+134
;	str3 -> Y+123
;	str4 -> Y+112
;	str5 -> Y+101
;	str6 -> Y+90
;	str7 -> Y+79
;	str8 -> Y+68
;	str9 -> Y+57
;	str10 -> Y+46
;	home -> Y+41
;	z -> Y+37
;	w -> Y+35
;	a -> Y+17
;	str3 -> Y+13
;	str4 -> Y+0
_0x119:
	LDD  R26,Y+37
	LDD  R27,Y+37+1
	SBIW R26,22
	BREQ _0x11B
; 0000 015D         show_pattern(a);
	CALL SUBOPT_0x29
; 0000 015E         delay_ms(250);
; 0000 015F         glcd_clear();
	CALL SUBOPT_0x2A
; 0000 0160         glcd_puts(str3,0,0,0,1,0);
	CALL SUBOPT_0x0
	CALL SUBOPT_0x1E
; 0000 0161         delay_ms(250);
	CALL SUBOPT_0x19
; 0000 0162         //delay_ms(250);
; 0000 0163 
; 0000 0164         z = key();
	CALL SUBOPT_0x2B
; 0000 0165         if(a[z]=='0'){
	BRNE _0x11C
; 0000 0166             a[z]='1';
	CALL SUBOPT_0x2C
	LDI  R30,LOW(49)
	RJMP _0x1CD
; 0000 0167         }else{
_0x11C:
; 0000 0168             a[z]='0';
	CALL SUBOPT_0x2C
	LDI  R30,LOW(48)
_0x1CD:
	ST   X,R30
; 0000 0169         }
; 0000 016A         //show_pattern(a);
; 0000 016B         }
	RJMP _0x119
_0x11B:
; 0000 016C         glcd_clear();
	CALL SUBOPT_0x2D
; 0000 016D         glcd_puts(str4,0,0,0,1,0);
	CALL SUBOPT_0x0
	CALL SUBOPT_0x1E
; 0000 016E         delay_ms(250);
	CALL SUBOPT_0x19
; 0000 016F         w=key();
	CALL SUBOPT_0x2E
; 0000 0170         if(w==1){
	BRNE _0x11E
; 0000 0171           a[17]='0';a[18]='0';a[19]='1';a[20]='0',a[21]='0',a[22]='0',a[23]='0';
	CALL SUBOPT_0x39
	CALL SUBOPT_0x30
; 0000 0172           puts(a);
; 0000 0173           //putsf("00000000/r");
; 0000 0174           }
; 0000 0175         if(w==2){
_0x11E:
	LDD  R26,Y+35
	LDD  R27,Y+35+1
	SBIW R26,2
	BRNE _0x11F
; 0000 0176           a[17]='0';a[18]='0';a[19]='1';a[20]='0',a[21]='0',a[22]='0',a[23]='1';
	CALL SUBOPT_0x39
	CALL SUBOPT_0x31
; 0000 0177           puts(a);
; 0000 0178           //putsf("00000001/r");
; 0000 0179         }
; 0000 017A         if(w==3) {
_0x11F:
	LDD  R26,Y+35
	LDD  R27,Y+35+1
	SBIW R26,3
	BRNE _0x120
; 0000 017B           a[17]='0';a[18]='0';a[19]='1';a[20]='0',a[21]='0',a[22]='1',a[23]='0';
	CALL SUBOPT_0x3A
	CALL SUBOPT_0x30
; 0000 017C           puts(a);
; 0000 017D           //putsf("00000010/r");
; 0000 017E         }
; 0000 017F         if(w==4){
_0x120:
	LDD  R26,Y+35
	LDD  R27,Y+35+1
	SBIW R26,4
	BRNE _0x121
; 0000 0180           a[17]='0';a[18]='0';a[19]='1';a[20]='0',a[21]='0',a[22]='1',a[23]='1';
	CALL SUBOPT_0x3A
	CALL SUBOPT_0x31
; 0000 0181           puts(a);
; 0000 0182           //putsf("00000011/r");
; 0000 0183         }
; 0000 0184         if(w==5){
_0x121:
	LDD  R26,Y+35
	LDD  R27,Y+35+1
	SBIW R26,5
	BRNE _0x122
; 0000 0185           a[17]='0';a[18]='0';a[19]='1';a[20]='0',a[21]='1',a[22]='0',a[23]='0';
	CALL SUBOPT_0x3B
	CALL SUBOPT_0x30
; 0000 0186           puts(a);
; 0000 0187           //putsf("00000100/r");
; 0000 0188         }
; 0000 0189         if(w==6){
_0x122:
	LDD  R26,Y+35
	LDD  R27,Y+35+1
	SBIW R26,6
	BRNE _0x123
; 0000 018A           a[17]='0';a[18]='0';a[19]='1';a[20]='0',a[21]='1',a[22]='0',a[23]='1';
	CALL SUBOPT_0x3B
	CALL SUBOPT_0x31
; 0000 018B           puts(a);
; 0000 018C           //putsf("00000101/r");
; 0000 018D         }
; 0000 018E         if(w==7){
_0x123:
	LDD  R26,Y+35
	LDD  R27,Y+35+1
	SBIW R26,7
	BRNE _0x124
; 0000 018F           a[17]='0';a[18]='0';a[19]='1';a[20]='0',a[21]='1',a[22]='1',a[23]='0';
	CALL SUBOPT_0x3C
	CALL SUBOPT_0x30
; 0000 0190           puts(a);
; 0000 0191           //putsf("00000110/r");
; 0000 0192         }
; 0000 0193         if(w==8){
_0x124:
	LDD  R26,Y+35
	LDD  R27,Y+35+1
	SBIW R26,8
	BRNE _0x125
; 0000 0194           a[17]='0';a[18]='0';a[19]='1';a[20]='0',a[21]='1',a[22]='1',a[23]='1';
	CALL SUBOPT_0x3C
	CALL SUBOPT_0x31
; 0000 0195           puts(a);
; 0000 0196           //putsf("00000111/r");
; 0000 0197         }
; 0000 0198         if(w==9){
_0x125:
	LDD  R26,Y+35
	LDD  R27,Y+35+1
	SBIW R26,9
	BRNE _0x126
; 0000 0199           a[17]='0';a[18]='0';a[19]='1';a[20]='1',a[21]='0',a[22]='0',a[23]='0';
	CALL SUBOPT_0x3D
	CALL SUBOPT_0x30
; 0000 019A           puts(a);
; 0000 019B           //putsf("00001000/r");
; 0000 019C         }
; 0000 019D         if(w==10){
_0x126:
	LDD  R26,Y+35
	LDD  R27,Y+35+1
	SBIW R26,10
	BRNE _0x127
; 0000 019E           a[17]='0';a[18]='0';a[19]='1';a[20]='1',a[21]='0',a[22]='0',a[23]='1';
	CALL SUBOPT_0x3D
	CALL SUBOPT_0x31
; 0000 019F           puts(a);
; 0000 01A0           //putsf("00001001/r");
; 0000 01A1         }
; 0000 01A2         if(w==11){
_0x127:
	LDD  R26,Y+35
	LDD  R27,Y+35+1
	SBIW R26,11
	BRNE _0x128
; 0000 01A3           a[17]='0';a[18]='0';a[19]='1';a[20]='1',a[21]='0',a[22]='1',a[23]='0';
	CALL SUBOPT_0x3E
	CALL SUBOPT_0x30
; 0000 01A4           puts(a);
; 0000 01A5           //putsf("00001010/r");
; 0000 01A6         }
; 0000 01A7         if(w==12){
_0x128:
	LDD  R26,Y+35
	LDD  R27,Y+35+1
	SBIW R26,12
	BRNE _0x129
; 0000 01A8           a[17]='0';a[18]='0';a[19]='1';a[20]='1',a[21]='0',a[22]='1',a[23]='1';
	CALL SUBOPT_0x3E
	CALL SUBOPT_0x31
; 0000 01A9           puts(a);
; 0000 01AA           //putsf("00001011/r");
; 0000 01AB         }
; 0000 01AC         if(w==13){
_0x129:
	LDD  R26,Y+35
	LDD  R27,Y+35+1
	SBIW R26,13
	BRNE _0x12A
; 0000 01AD           a[17]='0';a[18]='0';a[19]='1';a[20]='1',a[21]='1',a[22]='0',a[23]='0';
	CALL SUBOPT_0x3F
	CALL SUBOPT_0x30
; 0000 01AE           puts(a);
; 0000 01AF           //putsf("00001100/r");
; 0000 01B0         }
; 0000 01B1         if(w==14){
_0x12A:
	LDD  R26,Y+35
	LDD  R27,Y+35+1
	SBIW R26,14
	BRNE _0x12B
; 0000 01B2           a[17]='0';a[18]='0';a[19]='1';a[20]='1',a[21]='1',a[22]='0',a[23]='1';
	CALL SUBOPT_0x3F
	CALL SUBOPT_0x31
; 0000 01B3           puts(a);
; 0000 01B4           //putsf("00001101/r");
; 0000 01B5         }
; 0000 01B6         if(w==15){
_0x12B:
	LDD  R26,Y+35
	LDD  R27,Y+35+1
	SBIW R26,15
	BRNE _0x12C
; 0000 01B7           a[17]='0';a[18]='0';a[19]='1';a[20]='1',a[21]='1',a[22]='1',a[23]='0';
	CALL SUBOPT_0x40
	CALL SUBOPT_0x30
; 0000 01B8           puts(a);
; 0000 01B9           //putsf("00001110/r");
; 0000 01BA         }
; 0000 01BB         if(w==16){
_0x12C:
	LDD  R26,Y+35
	LDD  R27,Y+35+1
	SBIW R26,16
	BRNE _0x12D
; 0000 01BC           a[17]='0';a[18]='0';a[19]='1';a[20]='1',a[21]='1',a[22]='1',a[23]='1';
	CALL SUBOPT_0x40
	CALL SUBOPT_0x31
; 0000 01BD           puts(a);
; 0000 01BE           //putsf("00001111/r");
; 0000 01BF         }
; 0000 01C0 
; 0000 01C1 
; 0000 01C2          delay_ms(250);}
_0x12D:
	CALL SUBOPT_0x19
	ADIW R28,39
; 0000 01C3     if(y == 3) {
_0x117:
	CALL SUBOPT_0x1B
	BREQ PC+2
	RJMP _0x12E
; 0000 01C4         int z,w;
; 0000 01C5         unsigned char a[]="00110001100110011";
; 0000 01C6         unsigned char str3[] = "new";
; 0000 01C7         unsigned char str4[] = "select block";
; 0000 01C8         while(z!=22){
	CALL SUBOPT_0x28
	LDI  R30,LOW(_0x12F*2)
	LDI  R31,HIGH(_0x12F*2)
	CALL __INITLOCB
;	page -> Y+134
;	str3 -> Y+123
;	str4 -> Y+112
;	str5 -> Y+101
;	str6 -> Y+90
;	str7 -> Y+79
;	str8 -> Y+68
;	str9 -> Y+57
;	str10 -> Y+46
;	home -> Y+41
;	z -> Y+37
;	w -> Y+35
;	a -> Y+17
;	str3 -> Y+13
;	str4 -> Y+0
_0x130:
	LDD  R26,Y+37
	LDD  R27,Y+37+1
	SBIW R26,22
	BREQ _0x132
; 0000 01C9         show_pattern(a);
	CALL SUBOPT_0x29
; 0000 01CA         delay_ms(250);
; 0000 01CB         glcd_clear();
	CALL SUBOPT_0x2A
; 0000 01CC         glcd_puts(str3,0,0,0,1,0);
	CALL SUBOPT_0x0
	CALL SUBOPT_0x1E
; 0000 01CD         delay_ms(250);
	CALL SUBOPT_0x19
; 0000 01CE         //delay_ms(250);
; 0000 01CF 
; 0000 01D0         z = key();
	CALL SUBOPT_0x2B
; 0000 01D1         if(a[z]=='0'){
	BRNE _0x133
; 0000 01D2             a[z]='1';
	CALL SUBOPT_0x2C
	LDI  R30,LOW(49)
	RJMP _0x1CE
; 0000 01D3         }else{
_0x133:
; 0000 01D4             a[z]='0';
	CALL SUBOPT_0x2C
	LDI  R30,LOW(48)
_0x1CE:
	ST   X,R30
; 0000 01D5         }
; 0000 01D6         //show_pattern(a);
; 0000 01D7         }
	RJMP _0x130
_0x132:
; 0000 01D8         glcd_clear();
	CALL SUBOPT_0x2D
; 0000 01D9         glcd_puts(str4,0,0,0,1,0);
	CALL SUBOPT_0x0
	CALL SUBOPT_0x1E
; 0000 01DA         delay_ms(250);
	CALL SUBOPT_0x19
; 0000 01DB         w=key();
	CALL SUBOPT_0x2E
; 0000 01DC         if(w==1){
	BRNE _0x135
; 0000 01DD           a[17]='0';a[18]='1';a[19]='0';a[20]='0',a[21]='0',a[22]='0',a[23]='0';
	CALL SUBOPT_0x41
	CALL SUBOPT_0x30
; 0000 01DE           puts(a);
; 0000 01DF           //putsf("00000000/r");
; 0000 01E0           }
; 0000 01E1         if(w==2){
_0x135:
	LDD  R26,Y+35
	LDD  R27,Y+35+1
	SBIW R26,2
	BRNE _0x136
; 0000 01E2           a[17]='0';a[18]='1';a[19]='0';a[20]='0',a[21]='0',a[22]='0',a[23]='1';
	CALL SUBOPT_0x41
	CALL SUBOPT_0x31
; 0000 01E3           puts(a);
; 0000 01E4           //putsf("00000001/r");
; 0000 01E5         }
; 0000 01E6         if(w==3) {
_0x136:
	LDD  R26,Y+35
	LDD  R27,Y+35+1
	SBIW R26,3
	BRNE _0x137
; 0000 01E7           a[17]='0';a[18]='1';a[19]='0';a[20]='0',a[21]='0',a[22]='1',a[23]='0';
	CALL SUBOPT_0x42
	CALL SUBOPT_0x30
; 0000 01E8           puts(a);
; 0000 01E9           //putsf("00000010/r");
; 0000 01EA         }
; 0000 01EB         if(w==4){
_0x137:
	LDD  R26,Y+35
	LDD  R27,Y+35+1
	SBIW R26,4
	BRNE _0x138
; 0000 01EC           a[17]='0';a[18]='1';a[19]='0';a[20]='0',a[21]='0',a[22]='1',a[23]='1';
	CALL SUBOPT_0x42
	CALL SUBOPT_0x31
; 0000 01ED           puts(a);
; 0000 01EE           //putsf("00000011/r");
; 0000 01EF         }
; 0000 01F0         if(w==5){
_0x138:
	LDD  R26,Y+35
	LDD  R27,Y+35+1
	SBIW R26,5
	BRNE _0x139
; 0000 01F1           a[17]='0';a[18]='1';a[19]='0';a[20]='0',a[21]='1',a[22]='0',a[23]='0';
	CALL SUBOPT_0x43
	CALL SUBOPT_0x30
; 0000 01F2           puts(a);
; 0000 01F3           //putsf("00000100/r");
; 0000 01F4         }
; 0000 01F5         if(w==6){
_0x139:
	LDD  R26,Y+35
	LDD  R27,Y+35+1
	SBIW R26,6
	BRNE _0x13A
; 0000 01F6           a[17]='0';a[18]='1';a[19]='0';a[20]='0',a[21]='1',a[22]='0',a[23]='1';
	CALL SUBOPT_0x43
	CALL SUBOPT_0x31
; 0000 01F7           puts(a);
; 0000 01F8           //putsf("00000101/r");
; 0000 01F9         }
; 0000 01FA         if(w==7){
_0x13A:
	LDD  R26,Y+35
	LDD  R27,Y+35+1
	SBIW R26,7
	BRNE _0x13B
; 0000 01FB           a[17]='0';a[18]='1';a[19]='0';a[20]='0',a[21]='1',a[22]='1',a[23]='0';
	CALL SUBOPT_0x44
	CALL SUBOPT_0x30
; 0000 01FC           puts(a);
; 0000 01FD           //putsf("00000110/r");
; 0000 01FE         }
; 0000 01FF         if(w==8){
_0x13B:
	LDD  R26,Y+35
	LDD  R27,Y+35+1
	SBIW R26,8
	BRNE _0x13C
; 0000 0200           a[17]='0';a[18]='1';a[19]='0';a[20]='0',a[21]='1',a[22]='1',a[23]='1';
	CALL SUBOPT_0x44
	CALL SUBOPT_0x31
; 0000 0201           puts(a);
; 0000 0202           //putsf("00000111/r");
; 0000 0203         }
; 0000 0204         if(w==9){
_0x13C:
	LDD  R26,Y+35
	LDD  R27,Y+35+1
	SBIW R26,9
	BRNE _0x13D
; 0000 0205           a[17]='0';a[18]='1';a[19]='0';a[20]='1',a[21]='0',a[22]='0',a[23]='0';
	CALL SUBOPT_0x45
	CALL SUBOPT_0x30
; 0000 0206           puts(a);
; 0000 0207           //putsf("00001000/r");
; 0000 0208         }
; 0000 0209         if(w==10){
_0x13D:
	LDD  R26,Y+35
	LDD  R27,Y+35+1
	SBIW R26,10
	BRNE _0x13E
; 0000 020A           a[17]='0';a[18]='1';a[19]='0';a[20]='1',a[21]='0',a[22]='0',a[23]='1';
	CALL SUBOPT_0x45
	CALL SUBOPT_0x31
; 0000 020B           puts(a);
; 0000 020C           //putsf("00001001/r");
; 0000 020D         }
; 0000 020E         if(w==11){
_0x13E:
	LDD  R26,Y+35
	LDD  R27,Y+35+1
	SBIW R26,11
	BRNE _0x13F
; 0000 020F           a[17]='0';a[18]='1';a[19]='0';a[20]='1',a[21]='0',a[22]='1',a[23]='0';
	CALL SUBOPT_0x46
	CALL SUBOPT_0x30
; 0000 0210           puts(a);
; 0000 0211           //putsf("00001010/r");
; 0000 0212         }
; 0000 0213         if(w==12){
_0x13F:
	LDD  R26,Y+35
	LDD  R27,Y+35+1
	SBIW R26,12
	BRNE _0x140
; 0000 0214           a[17]='0';a[18]='1';a[19]='0';a[20]='1',a[21]='0',a[22]='1',a[23]='1';
	CALL SUBOPT_0x46
	CALL SUBOPT_0x31
; 0000 0215           puts(a);
; 0000 0216           //putsf("00001011/r");
; 0000 0217         }
; 0000 0218         if(w==13){
_0x140:
	LDD  R26,Y+35
	LDD  R27,Y+35+1
	SBIW R26,13
	BRNE _0x141
; 0000 0219           a[17]='0';a[18]='1';a[19]='0';a[20]='1',a[21]='1',a[22]='0',a[23]='0';
	CALL SUBOPT_0x47
	CALL SUBOPT_0x30
; 0000 021A           puts(a);
; 0000 021B           //putsf("00001100/r");
; 0000 021C         }
; 0000 021D         if(w==14){
_0x141:
	LDD  R26,Y+35
	LDD  R27,Y+35+1
	SBIW R26,14
	BRNE _0x142
; 0000 021E           a[17]='0';a[18]='1';a[19]='0';a[20]='1',a[21]='1',a[22]='0',a[23]='1';
	CALL SUBOPT_0x47
	CALL SUBOPT_0x31
; 0000 021F           puts(a);
; 0000 0220           //putsf("00001101/r");
; 0000 0221         }
; 0000 0222         if(w==15){
_0x142:
	LDD  R26,Y+35
	LDD  R27,Y+35+1
	SBIW R26,15
	BRNE _0x143
; 0000 0223           a[17]='0';a[18]='1';a[19]='0';a[20]='1',a[21]='1',a[22]='1',a[23]='0';
	CALL SUBOPT_0x48
	CALL SUBOPT_0x30
; 0000 0224           puts(a);
; 0000 0225           //putsf("00001110/r");
; 0000 0226         }
; 0000 0227         if(w==16){
_0x143:
	LDD  R26,Y+35
	LDD  R27,Y+35+1
	SBIW R26,16
	BRNE _0x144
; 0000 0228           a[17]='0';a[18]='1';a[19]='0';a[20]='1',a[21]='1',a[22]='1',a[23]='1';
	CALL SUBOPT_0x48
	CALL SUBOPT_0x31
; 0000 0229           puts(a);
; 0000 022A           //putsf("00001111/r");
; 0000 022B         }
; 0000 022C          delay_ms(250);}
_0x144:
	CALL SUBOPT_0x19
	ADIW R28,39
; 0000 022D     if(y == 4) {
_0x12E:
	LDI  R30,LOW(4)
	LDI  R31,HIGH(4)
	CP   R30,R16
	CPC  R31,R17
	BREQ PC+2
	RJMP _0x145
; 0000 022E         int z,w;
; 0000 022F         unsigned char a[]="00011011111101011";
; 0000 0230         unsigned char str3[] = "new";
; 0000 0231         unsigned char str4[] = "select block";
; 0000 0232         while(z!=22){
	CALL SUBOPT_0x28
	LDI  R30,LOW(_0x146*2)
	LDI  R31,HIGH(_0x146*2)
	CALL __INITLOCB
;	page -> Y+134
;	str3 -> Y+123
;	str4 -> Y+112
;	str5 -> Y+101
;	str6 -> Y+90
;	str7 -> Y+79
;	str8 -> Y+68
;	str9 -> Y+57
;	str10 -> Y+46
;	home -> Y+41
;	z -> Y+37
;	w -> Y+35
;	a -> Y+17
;	str3 -> Y+13
;	str4 -> Y+0
_0x147:
	LDD  R26,Y+37
	LDD  R27,Y+37+1
	SBIW R26,22
	BREQ _0x149
; 0000 0233         show_pattern(a);
	CALL SUBOPT_0x29
; 0000 0234         delay_ms(250);
; 0000 0235         glcd_clear();
	CALL SUBOPT_0x2A
; 0000 0236         glcd_puts(str3,0,0,0,1,0);
	CALL SUBOPT_0x0
	CALL SUBOPT_0x1E
; 0000 0237         delay_ms(250);
	CALL SUBOPT_0x19
; 0000 0238         //delay_ms(250);
; 0000 0239 
; 0000 023A         z = key();
	CALL SUBOPT_0x2B
; 0000 023B         if(a[z]=='0'){
	BRNE _0x14A
; 0000 023C             a[z]='1';
	CALL SUBOPT_0x2C
	LDI  R30,LOW(49)
	RJMP _0x1CF
; 0000 023D         }else{
_0x14A:
; 0000 023E             a[z]='0';
	CALL SUBOPT_0x2C
	LDI  R30,LOW(48)
_0x1CF:
	ST   X,R30
; 0000 023F         }
; 0000 0240         //show_pattern(a);
; 0000 0241         }
	RJMP _0x147
_0x149:
; 0000 0242         glcd_clear();
	CALL SUBOPT_0x2D
; 0000 0243         glcd_puts(str4,0,0,0,1,0);
	CALL SUBOPT_0x0
	CALL SUBOPT_0x1E
; 0000 0244         delay_ms(250);
	CALL SUBOPT_0x19
; 0000 0245         w=key();
	CALL SUBOPT_0x2E
; 0000 0246         if(w==1){
	BRNE _0x14C
; 0000 0247           a[17]='0';a[18]='1';a[19]='1';a[20]='0',a[21]='0',a[22]='0',a[23]='0';
	CALL SUBOPT_0x49
	CALL SUBOPT_0x30
; 0000 0248           puts(a);
; 0000 0249           //putsf("00000000/r");
; 0000 024A           }
; 0000 024B         if(w==2){
_0x14C:
	LDD  R26,Y+35
	LDD  R27,Y+35+1
	SBIW R26,2
	BRNE _0x14D
; 0000 024C           a[17]='0';a[18]='1';a[19]='1';a[20]='0',a[21]='0',a[22]='0',a[23]='1';
	CALL SUBOPT_0x49
	CALL SUBOPT_0x31
; 0000 024D           puts(a);
; 0000 024E           //putsf("00000001/r");
; 0000 024F         }
; 0000 0250         if(w==3) {
_0x14D:
	LDD  R26,Y+35
	LDD  R27,Y+35+1
	SBIW R26,3
	BRNE _0x14E
; 0000 0251           a[17]='0';a[18]='1';a[19]='1';a[20]='0',a[21]='0',a[22]='1',a[23]='0';
	CALL SUBOPT_0x4A
	CALL SUBOPT_0x30
; 0000 0252           puts(a);
; 0000 0253           //putsf("00000010/r");
; 0000 0254         }
; 0000 0255         if(w==4){
_0x14E:
	LDD  R26,Y+35
	LDD  R27,Y+35+1
	SBIW R26,4
	BRNE _0x14F
; 0000 0256           a[17]='0';a[18]='1';a[19]='1';a[20]='0',a[21]='0',a[22]='1',a[23]='1';
	CALL SUBOPT_0x4A
	CALL SUBOPT_0x31
; 0000 0257           puts(a);
; 0000 0258           //putsf("00000011/r");
; 0000 0259         }
; 0000 025A         if(w==5){
_0x14F:
	LDD  R26,Y+35
	LDD  R27,Y+35+1
	SBIW R26,5
	BRNE _0x150
; 0000 025B           a[17]='0';a[18]='1';a[19]='1';a[20]='0',a[21]='1',a[22]='0',a[23]='0';
	CALL SUBOPT_0x4B
	CALL SUBOPT_0x30
; 0000 025C           puts(a);
; 0000 025D           //putsf("00000100/r");
; 0000 025E         }
; 0000 025F         if(w==6){
_0x150:
	LDD  R26,Y+35
	LDD  R27,Y+35+1
	SBIW R26,6
	BRNE _0x151
; 0000 0260           a[17]='0';a[18]='1';a[19]='1';a[20]='0',a[21]='1',a[22]='0',a[23]='1';
	CALL SUBOPT_0x4B
	CALL SUBOPT_0x31
; 0000 0261           puts(a);
; 0000 0262           //putsf("00000101/r");
; 0000 0263         }
; 0000 0264         if(w==7){
_0x151:
	LDD  R26,Y+35
	LDD  R27,Y+35+1
	SBIW R26,7
	BRNE _0x152
; 0000 0265           a[17]='0';a[18]='1';a[19]='1';a[20]='0',a[21]='1',a[22]='1',a[23]='0';
	CALL SUBOPT_0x4C
	CALL SUBOPT_0x30
; 0000 0266           puts(a);
; 0000 0267           //putsf("00000110/r");
; 0000 0268         }
; 0000 0269         if(w==8){
_0x152:
	LDD  R26,Y+35
	LDD  R27,Y+35+1
	SBIW R26,8
	BRNE _0x153
; 0000 026A           a[17]='0';a[18]='1';a[19]='1';a[20]='0',a[21]='1',a[22]='1',a[23]='1';
	CALL SUBOPT_0x4C
	CALL SUBOPT_0x31
; 0000 026B           puts(a);
; 0000 026C           //putsf("00000111/r");
; 0000 026D         }
; 0000 026E         if(w==9){
_0x153:
	LDD  R26,Y+35
	LDD  R27,Y+35+1
	SBIW R26,9
	BRNE _0x154
; 0000 026F           a[17]='0';a[18]='1';a[19]='1';a[20]='1',a[21]='0',a[22]='0',a[23]='0';
	CALL SUBOPT_0x4D
	CALL SUBOPT_0x30
; 0000 0270           puts(a);
; 0000 0271           //putsf("00001000/r");
; 0000 0272         }
; 0000 0273         if(w==10){
_0x154:
	LDD  R26,Y+35
	LDD  R27,Y+35+1
	SBIW R26,10
	BRNE _0x155
; 0000 0274           a[17]='0';a[18]='1';a[19]='1';a[20]='1',a[21]='0',a[22]='0',a[23]='1';
	CALL SUBOPT_0x4D
	CALL SUBOPT_0x31
; 0000 0275           puts(a);
; 0000 0276           //putsf("00001001/r");
; 0000 0277         }
; 0000 0278         if(w==11){
_0x155:
	LDD  R26,Y+35
	LDD  R27,Y+35+1
	SBIW R26,11
	BRNE _0x156
; 0000 0279           a[17]='0';a[18]='1';a[19]='1';a[20]='1',a[21]='0',a[22]='1',a[23]='0';
	CALL SUBOPT_0x4E
	CALL SUBOPT_0x30
; 0000 027A           puts(a);
; 0000 027B           //putsf("00001010/r");
; 0000 027C         }
; 0000 027D         if(w==12){
_0x156:
	LDD  R26,Y+35
	LDD  R27,Y+35+1
	SBIW R26,12
	BRNE _0x157
; 0000 027E           a[17]='0';a[18]='1';a[19]='1';a[20]='1',a[21]='0',a[22]='1',a[23]='1';
	CALL SUBOPT_0x4E
	CALL SUBOPT_0x31
; 0000 027F           puts(a);
; 0000 0280           //putsf("00001011/r");
; 0000 0281         }
; 0000 0282         if(w==13){
_0x157:
	LDD  R26,Y+35
	LDD  R27,Y+35+1
	SBIW R26,13
	BRNE _0x158
; 0000 0283           a[17]='0';a[18]='1';a[19]='1';a[20]='1',a[21]='1',a[22]='0',a[23]='0';
	CALL SUBOPT_0x4F
	CALL SUBOPT_0x30
; 0000 0284           puts(a);
; 0000 0285           //putsf("00001100/r");
; 0000 0286         }
; 0000 0287         if(w==14){
_0x158:
	LDD  R26,Y+35
	LDD  R27,Y+35+1
	SBIW R26,14
	BRNE _0x159
; 0000 0288           a[17]='0';a[18]='1';a[19]='1';a[20]='1',a[21]='1',a[22]='0',a[23]='1';
	CALL SUBOPT_0x4F
	CALL SUBOPT_0x31
; 0000 0289           puts(a);
; 0000 028A           //putsf("00001101/r");
; 0000 028B         }
; 0000 028C         if(w==15){
_0x159:
	LDD  R26,Y+35
	LDD  R27,Y+35+1
	SBIW R26,15
	BRNE _0x15A
; 0000 028D           a[17]='0';a[18]='1';a[19]='1';a[20]='1',a[21]='1',a[22]='1',a[23]='0';
	CALL SUBOPT_0x50
	CALL SUBOPT_0x30
; 0000 028E           puts(a);
; 0000 028F           //putsf("00001110/r");
; 0000 0290         }
; 0000 0291         if(w==16){
_0x15A:
	LDD  R26,Y+35
	LDD  R27,Y+35+1
	SBIW R26,16
	BRNE _0x15B
; 0000 0292           a[17]='0';a[18]='1';a[19]='1';a[20]='1',a[21]='1',a[22]='1',a[23]='1';
	CALL SUBOPT_0x50
	CALL SUBOPT_0x31
; 0000 0293           puts(a);
; 0000 0294           //putsf("00001111/r");
; 0000 0295         }
; 0000 0296          delay_ms(250);}
_0x15B:
	CALL SUBOPT_0x19
	ADIW R28,39
; 0000 0297     if(y == 5) {
_0x145:
	LDI  R30,LOW(5)
	LDI  R31,HIGH(5)
	CP   R30,R16
	CPC  R31,R17
	BREQ PC+2
	RJMP _0x15C
; 0000 0298         int z,w;
; 0000 0299         unsigned char a[]="00001011111101101";
; 0000 029A         unsigned char str3[] = "new";
; 0000 029B         unsigned char str4[] = "select block";
; 0000 029C         while(z!=22){
	CALL SUBOPT_0x28
	LDI  R30,LOW(_0x15D*2)
	LDI  R31,HIGH(_0x15D*2)
	CALL __INITLOCB
;	page -> Y+134
;	str3 -> Y+123
;	str4 -> Y+112
;	str5 -> Y+101
;	str6 -> Y+90
;	str7 -> Y+79
;	str8 -> Y+68
;	str9 -> Y+57
;	str10 -> Y+46
;	home -> Y+41
;	z -> Y+37
;	w -> Y+35
;	a -> Y+17
;	str3 -> Y+13
;	str4 -> Y+0
_0x15E:
	LDD  R26,Y+37
	LDD  R27,Y+37+1
	SBIW R26,22
	BREQ _0x160
; 0000 029D         show_pattern(a);
	CALL SUBOPT_0x29
; 0000 029E         delay_ms(250);
; 0000 029F         glcd_clear();
	CALL SUBOPT_0x2A
; 0000 02A0         glcd_puts(str3,0,0,0,1,0);
	CALL SUBOPT_0x0
	CALL SUBOPT_0x1E
; 0000 02A1         delay_ms(250);
	CALL SUBOPT_0x19
; 0000 02A2         //delay_ms(250);
; 0000 02A3 
; 0000 02A4         z = key();
	CALL SUBOPT_0x2B
; 0000 02A5         if(a[z]=='0'){
	BRNE _0x161
; 0000 02A6             a[z]='1';
	CALL SUBOPT_0x2C
	LDI  R30,LOW(49)
	RJMP _0x1D0
; 0000 02A7         }else{
_0x161:
; 0000 02A8             a[z]='0';
	CALL SUBOPT_0x2C
	LDI  R30,LOW(48)
_0x1D0:
	ST   X,R30
; 0000 02A9         }
; 0000 02AA         //show_pattern(a);
; 0000 02AB         }
	RJMP _0x15E
_0x160:
; 0000 02AC         glcd_clear();
	CALL SUBOPT_0x2D
; 0000 02AD         glcd_puts(str4,0,0,0,1,0);
	CALL SUBOPT_0x0
	CALL SUBOPT_0x1E
; 0000 02AE         delay_ms(250);
	CALL SUBOPT_0x19
; 0000 02AF         w=key();
	CALL SUBOPT_0x2E
; 0000 02B0         if(w==1){
	BRNE _0x163
; 0000 02B1           a[17]='1';a[18]='0';a[19]='0';a[20]='0',a[21]='0',a[22]='0',a[23]='0';
	CALL SUBOPT_0x51
	CALL SUBOPT_0x30
; 0000 02B2           puts(a);
; 0000 02B3           //putsf("00000000/r");
; 0000 02B4           }
; 0000 02B5         if(w==2){
_0x163:
	LDD  R26,Y+35
	LDD  R27,Y+35+1
	SBIW R26,2
	BRNE _0x164
; 0000 02B6           a[17]='1';a[18]='0';a[19]='0';a[20]='0',a[21]='0',a[22]='0',a[23]='1';
	CALL SUBOPT_0x51
	CALL SUBOPT_0x31
; 0000 02B7           puts(a);
; 0000 02B8           //putsf("00000001/r");
; 0000 02B9         }
; 0000 02BA         if(w==3) {
_0x164:
	LDD  R26,Y+35
	LDD  R27,Y+35+1
	SBIW R26,3
	BRNE _0x165
; 0000 02BB           a[17]='1';a[18]='0';a[19]='0';a[20]='0',a[21]='0',a[22]='1',a[23]='0';
	CALL SUBOPT_0x52
	CALL SUBOPT_0x30
; 0000 02BC           puts(a);
; 0000 02BD           //putsf("00000010/r");
; 0000 02BE         }
; 0000 02BF         if(w==4){
_0x165:
	LDD  R26,Y+35
	LDD  R27,Y+35+1
	SBIW R26,4
	BRNE _0x166
; 0000 02C0           a[17]='1';a[18]='0';a[19]='0';a[20]='0',a[21]='0',a[22]='1',a[23]='1';
	CALL SUBOPT_0x52
	CALL SUBOPT_0x31
; 0000 02C1           puts(a);
; 0000 02C2           //putsf("00000011/r");
; 0000 02C3         }
; 0000 02C4         if(w==5){
_0x166:
	LDD  R26,Y+35
	LDD  R27,Y+35+1
	SBIW R26,5
	BRNE _0x167
; 0000 02C5           a[17]='1';a[18]='0';a[19]='0';a[20]='0',a[21]='1',a[22]='0',a[23]='0';
	CALL SUBOPT_0x53
	CALL SUBOPT_0x30
; 0000 02C6           puts(a);
; 0000 02C7           //putsf("00000100/r");
; 0000 02C8         }
; 0000 02C9         if(w==6){
_0x167:
	LDD  R26,Y+35
	LDD  R27,Y+35+1
	SBIW R26,6
	BRNE _0x168
; 0000 02CA           a[17]='1';a[18]='0';a[19]='0';a[20]='0',a[21]='1',a[22]='0',a[23]='1';
	CALL SUBOPT_0x53
	CALL SUBOPT_0x31
; 0000 02CB           puts(a);
; 0000 02CC           //putsf("00000101/r");
; 0000 02CD         }
; 0000 02CE         if(w==7){
_0x168:
	LDD  R26,Y+35
	LDD  R27,Y+35+1
	SBIW R26,7
	BRNE _0x169
; 0000 02CF           a[17]='1';a[18]='0';a[19]='0';a[20]='0',a[21]='1',a[22]='1',a[23]='0';
	CALL SUBOPT_0x54
	CALL SUBOPT_0x30
; 0000 02D0           puts(a);
; 0000 02D1           //putsf("00000110/r");
; 0000 02D2         }
; 0000 02D3         if(w==8){
_0x169:
	LDD  R26,Y+35
	LDD  R27,Y+35+1
	SBIW R26,8
	BRNE _0x16A
; 0000 02D4           a[17]='1';a[18]='0';a[19]='0';a[20]='0',a[21]='1',a[22]='1',a[23]='1';
	CALL SUBOPT_0x54
	CALL SUBOPT_0x31
; 0000 02D5           puts(a);
; 0000 02D6           //putsf("00000111/r");
; 0000 02D7         }
; 0000 02D8         if(w==9){
_0x16A:
	LDD  R26,Y+35
	LDD  R27,Y+35+1
	SBIW R26,9
	BRNE _0x16B
; 0000 02D9           a[17]='1';a[18]='0';a[19]='0';a[20]='1',a[21]='0',a[22]='0',a[23]='0';
	CALL SUBOPT_0x55
	CALL SUBOPT_0x30
; 0000 02DA           puts(a);
; 0000 02DB           //putsf("00001000/r");
; 0000 02DC         }
; 0000 02DD         if(w==10){
_0x16B:
	LDD  R26,Y+35
	LDD  R27,Y+35+1
	SBIW R26,10
	BRNE _0x16C
; 0000 02DE           a[17]='1';a[18]='0';a[19]='0';a[20]='1',a[21]='0',a[22]='0',a[23]='1';
	CALL SUBOPT_0x55
	CALL SUBOPT_0x31
; 0000 02DF           puts(a);
; 0000 02E0           //putsf("00001001/r");
; 0000 02E1         }
; 0000 02E2         if(w==11){
_0x16C:
	LDD  R26,Y+35
	LDD  R27,Y+35+1
	SBIW R26,11
	BRNE _0x16D
; 0000 02E3           a[17]='1';a[18]='0';a[19]='0';a[20]='1',a[21]='0',a[22]='1',a[23]='0';
	CALL SUBOPT_0x56
	CALL SUBOPT_0x30
; 0000 02E4           puts(a);
; 0000 02E5           //putsf("00001010/r");
; 0000 02E6         }
; 0000 02E7         if(w==12){
_0x16D:
	LDD  R26,Y+35
	LDD  R27,Y+35+1
	SBIW R26,12
	BRNE _0x16E
; 0000 02E8           a[17]='1';a[18]='0';a[19]='0';a[20]='1',a[21]='0',a[22]='1',a[23]='1';
	CALL SUBOPT_0x56
	CALL SUBOPT_0x31
; 0000 02E9           puts(a);
; 0000 02EA           //putsf("00001011/r");
; 0000 02EB         }
; 0000 02EC         if(w==13){
_0x16E:
	LDD  R26,Y+35
	LDD  R27,Y+35+1
	SBIW R26,13
	BRNE _0x16F
; 0000 02ED           a[17]='1';a[18]='0';a[19]='0';a[20]='1',a[21]='1',a[22]='0',a[23]='0';
	CALL SUBOPT_0x57
	CALL SUBOPT_0x30
; 0000 02EE           puts(a);
; 0000 02EF           //putsf("00001100/r");
; 0000 02F0         }
; 0000 02F1         if(w==14){
_0x16F:
	LDD  R26,Y+35
	LDD  R27,Y+35+1
	SBIW R26,14
	BRNE _0x170
; 0000 02F2           a[17]='1';a[18]='0';a[19]='0';a[20]='1',a[21]='1',a[22]='0',a[23]='1';
	CALL SUBOPT_0x57
	CALL SUBOPT_0x31
; 0000 02F3           puts(a);
; 0000 02F4           //putsf("00001101/r");
; 0000 02F5         }
; 0000 02F6         if(w==15){
_0x170:
	LDD  R26,Y+35
	LDD  R27,Y+35+1
	SBIW R26,15
	BRNE _0x171
; 0000 02F7           a[17]='1';a[18]='0';a[19]='0';a[20]='1',a[21]='1',a[22]='1',a[23]='0';
	CALL SUBOPT_0x58
	CALL SUBOPT_0x30
; 0000 02F8           puts(a);
; 0000 02F9           //putsf("00001110/r");
; 0000 02FA         }
; 0000 02FB         if(w==16){
_0x171:
	LDD  R26,Y+35
	LDD  R27,Y+35+1
	SBIW R26,16
	BRNE _0x172
; 0000 02FC           a[17]='1';a[18]='0';a[19]='0';a[20]='1',a[21]='1',a[22]='1',a[23]='1';
	CALL SUBOPT_0x58
	CALL SUBOPT_0x31
; 0000 02FD           puts(a);
; 0000 02FE           //putsf("00001111/r");
; 0000 02FF         }
; 0000 0300          delay_ms(250);}
_0x172:
	CALL SUBOPT_0x19
	ADIW R28,39
; 0000 0301     if(y == 6) {
_0x15C:
	LDI  R30,LOW(6)
	LDI  R31,HIGH(6)
	CP   R30,R16
	CPC  R31,R17
	BREQ PC+2
	RJMP _0x173
; 0000 0302         int z,w;
; 0000 0303         unsigned char a[]="01111000000001111";
; 0000 0304         unsigned char str3[] = "new";
; 0000 0305         unsigned char str4[] = "select block";
; 0000 0306         while(z!=22){
	CALL SUBOPT_0x28
	LDI  R30,LOW(_0x174*2)
	LDI  R31,HIGH(_0x174*2)
	CALL __INITLOCB
;	page -> Y+134
;	str3 -> Y+123
;	str4 -> Y+112
;	str5 -> Y+101
;	str6 -> Y+90
;	str7 -> Y+79
;	str8 -> Y+68
;	str9 -> Y+57
;	str10 -> Y+46
;	home -> Y+41
;	z -> Y+37
;	w -> Y+35
;	a -> Y+17
;	str3 -> Y+13
;	str4 -> Y+0
_0x175:
	LDD  R26,Y+37
	LDD  R27,Y+37+1
	SBIW R26,22
	BREQ _0x177
; 0000 0307         show_pattern(a);
	CALL SUBOPT_0x29
; 0000 0308         delay_ms(250);
; 0000 0309         glcd_clear();
	CALL SUBOPT_0x2A
; 0000 030A         glcd_puts(str3,0,0,0,1,0);
	CALL SUBOPT_0x0
	CALL SUBOPT_0x1E
; 0000 030B         delay_ms(250);
	CALL SUBOPT_0x19
; 0000 030C         //delay_ms(250);
; 0000 030D 
; 0000 030E         z = key();
	CALL SUBOPT_0x2B
; 0000 030F         if(a[z]=='0'){
	BRNE _0x178
; 0000 0310             a[z]='1';
	CALL SUBOPT_0x2C
	LDI  R30,LOW(49)
	RJMP _0x1D1
; 0000 0311         }else{
_0x178:
; 0000 0312             a[z]='0';
	CALL SUBOPT_0x2C
	LDI  R30,LOW(48)
_0x1D1:
	ST   X,R30
; 0000 0313         }
; 0000 0314         //show_pattern(a);
; 0000 0315         }
	RJMP _0x175
_0x177:
; 0000 0316         glcd_clear();
	CALL SUBOPT_0x2D
; 0000 0317         glcd_puts(str4,0,0,0,1,0);
	CALL SUBOPT_0x0
	CALL SUBOPT_0x1E
; 0000 0318         delay_ms(250);
	CALL SUBOPT_0x19
; 0000 0319         w=key();
	CALL SUBOPT_0x2E
; 0000 031A         if(w==1){
	BRNE _0x17A
; 0000 031B           a[17]='1';a[18]='0';a[19]='1';a[20]='0',a[21]='0',a[22]='0',a[23]='0';
	CALL SUBOPT_0x59
	CALL SUBOPT_0x30
; 0000 031C           puts(a);
; 0000 031D           //putsf("00000000/r");
; 0000 031E           }
; 0000 031F         if(w==2){
_0x17A:
	LDD  R26,Y+35
	LDD  R27,Y+35+1
	SBIW R26,2
	BRNE _0x17B
; 0000 0320           a[17]='1';a[18]='0';a[19]='1';a[20]='0',a[21]='0',a[22]='0',a[23]='1';
	CALL SUBOPT_0x59
	CALL SUBOPT_0x31
; 0000 0321           puts(a);
; 0000 0322           //putsf("00000001/r");
; 0000 0323         }
; 0000 0324         if(w==3) {
_0x17B:
	LDD  R26,Y+35
	LDD  R27,Y+35+1
	SBIW R26,3
	BRNE _0x17C
; 0000 0325           a[17]='1';a[18]='0';a[19]='1';a[20]='0',a[21]='0',a[22]='1',a[23]='0';
	CALL SUBOPT_0x5A
	CALL SUBOPT_0x30
; 0000 0326           puts(a);
; 0000 0327           //putsf("00000010/r");
; 0000 0328         }
; 0000 0329         if(w==4){
_0x17C:
	LDD  R26,Y+35
	LDD  R27,Y+35+1
	SBIW R26,4
	BRNE _0x17D
; 0000 032A           a[17]='1';a[18]='0';a[19]='1';a[20]='0',a[21]='0',a[22]='1',a[23]='1';
	CALL SUBOPT_0x5A
	CALL SUBOPT_0x31
; 0000 032B           puts(a);
; 0000 032C           //putsf("00000011/r");
; 0000 032D         }
; 0000 032E         if(w==5){
_0x17D:
	LDD  R26,Y+35
	LDD  R27,Y+35+1
	SBIW R26,5
	BRNE _0x17E
; 0000 032F           a[17]='1';a[18]='0';a[19]='1';a[20]='0',a[21]='1',a[22]='0',a[23]='0';
	CALL SUBOPT_0x5B
	CALL SUBOPT_0x30
; 0000 0330           puts(a);
; 0000 0331           //putsf("00000100/r");
; 0000 0332         }
; 0000 0333         if(w==6){
_0x17E:
	LDD  R26,Y+35
	LDD  R27,Y+35+1
	SBIW R26,6
	BRNE _0x17F
; 0000 0334           a[17]='1';a[18]='0';a[19]='1';a[20]='0',a[21]='1',a[22]='0',a[23]='1';
	CALL SUBOPT_0x5B
	CALL SUBOPT_0x31
; 0000 0335           puts(a);
; 0000 0336           //putsf("00000101/r");
; 0000 0337         }
; 0000 0338         if(w==7){
_0x17F:
	LDD  R26,Y+35
	LDD  R27,Y+35+1
	SBIW R26,7
	BRNE _0x180
; 0000 0339           a[17]='1';a[18]='0';a[19]='1';a[20]='0',a[21]='1',a[22]='1',a[23]='0';
	CALL SUBOPT_0x5C
	CALL SUBOPT_0x30
; 0000 033A           puts(a);
; 0000 033B           //putsf("00000110/r");
; 0000 033C         }
; 0000 033D         if(w==8){
_0x180:
	LDD  R26,Y+35
	LDD  R27,Y+35+1
	SBIW R26,8
	BRNE _0x181
; 0000 033E           a[17]='1';a[18]='0';a[19]='1';a[20]='0',a[21]='1',a[22]='1',a[23]='1';
	CALL SUBOPT_0x5C
	CALL SUBOPT_0x31
; 0000 033F           puts(a);
; 0000 0340           //putsf("00000111/r");
; 0000 0341         }
; 0000 0342         if(w==9){
_0x181:
	LDD  R26,Y+35
	LDD  R27,Y+35+1
	SBIW R26,9
	BRNE _0x182
; 0000 0343           a[17]='1';a[18]='0';a[19]='1';a[20]='1',a[21]='0',a[22]='0',a[23]='0';
	CALL SUBOPT_0x5D
	CALL SUBOPT_0x30
; 0000 0344           puts(a);
; 0000 0345           //putsf("00001000/r");
; 0000 0346         }
; 0000 0347         if(w==10){
_0x182:
	LDD  R26,Y+35
	LDD  R27,Y+35+1
	SBIW R26,10
	BRNE _0x183
; 0000 0348           a[17]='1';a[18]='0';a[19]='1';a[20]='1',a[21]='0',a[22]='0',a[23]='1';
	CALL SUBOPT_0x5D
	CALL SUBOPT_0x31
; 0000 0349           puts(a);
; 0000 034A           //putsf("00001001/r");
; 0000 034B         }
; 0000 034C         if(w==11){
_0x183:
	LDD  R26,Y+35
	LDD  R27,Y+35+1
	SBIW R26,11
	BRNE _0x184
; 0000 034D           a[17]='1';a[18]='0';a[19]='1';a[20]='1',a[21]='0',a[22]='1',a[23]='0';
	CALL SUBOPT_0x5E
	CALL SUBOPT_0x30
; 0000 034E           puts(a);
; 0000 034F           //putsf("00001010/r");
; 0000 0350         }
; 0000 0351         if(w==12){
_0x184:
	LDD  R26,Y+35
	LDD  R27,Y+35+1
	SBIW R26,12
	BRNE _0x185
; 0000 0352           a[17]='1';a[18]='0';a[19]='1';a[20]='1',a[21]='0',a[22]='1',a[23]='1';
	CALL SUBOPT_0x5E
	CALL SUBOPT_0x31
; 0000 0353           puts(a);
; 0000 0354           //putsf("00001011/r");
; 0000 0355         }
; 0000 0356         if(w==13){
_0x185:
	LDD  R26,Y+35
	LDD  R27,Y+35+1
	SBIW R26,13
	BRNE _0x186
; 0000 0357           a[17]='1';a[18]='0';a[19]='1';a[20]='1',a[21]='1',a[22]='0',a[23]='0';
	CALL SUBOPT_0x5F
	CALL SUBOPT_0x30
; 0000 0358           puts(a);
; 0000 0359           //putsf("00001100/r");
; 0000 035A         }
; 0000 035B         if(w==14){
_0x186:
	LDD  R26,Y+35
	LDD  R27,Y+35+1
	SBIW R26,14
	BRNE _0x187
; 0000 035C           a[17]='1';a[18]='0';a[19]='1';a[20]='1',a[21]='1',a[22]='0',a[23]='1';
	CALL SUBOPT_0x5F
	CALL SUBOPT_0x31
; 0000 035D           puts(a);
; 0000 035E           //putsf("00001101/r");
; 0000 035F         }
; 0000 0360         if(w==15){
_0x187:
	LDD  R26,Y+35
	LDD  R27,Y+35+1
	SBIW R26,15
	BRNE _0x188
; 0000 0361           a[17]='1';a[18]='0';a[19]='1';a[20]='1',a[21]='1',a[22]='1',a[23]='0';
	CALL SUBOPT_0x60
	CALL SUBOPT_0x30
; 0000 0362           puts(a);
; 0000 0363           //putsf("00001110/r");
; 0000 0364         }
; 0000 0365         if(w==16){
_0x188:
	LDD  R26,Y+35
	LDD  R27,Y+35+1
	SBIW R26,16
	BRNE _0x189
; 0000 0366           a[17]='1';a[18]='0';a[19]='1';a[20]='1',a[21]='1',a[22]='1',a[23]='1';
	CALL SUBOPT_0x60
	CALL SUBOPT_0x31
; 0000 0367           puts(a);
; 0000 0368           //putsf("00001111/r");
; 0000 0369         }
; 0000 036A          delay_ms(250);}
_0x189:
	CALL SUBOPT_0x19
	ADIW R28,39
; 0000 036B     if(y == 7) {
_0x173:
	LDI  R30,LOW(7)
	LDI  R31,HIGH(7)
	CP   R30,R16
	CPC  R31,R17
	BREQ PC+2
	RJMP _0x18A
; 0000 036C         int z,w;
; 0000 036D         unsigned char a[]="00101111111100101";
; 0000 036E         unsigned char str3[] = "new";
; 0000 036F         unsigned char str4[] = "select block";
; 0000 0370         while(z!=22){
	CALL SUBOPT_0x28
	LDI  R30,LOW(_0x18B*2)
	LDI  R31,HIGH(_0x18B*2)
	CALL __INITLOCB
;	page -> Y+134
;	str3 -> Y+123
;	str4 -> Y+112
;	str5 -> Y+101
;	str6 -> Y+90
;	str7 -> Y+79
;	str8 -> Y+68
;	str9 -> Y+57
;	str10 -> Y+46
;	home -> Y+41
;	z -> Y+37
;	w -> Y+35
;	a -> Y+17
;	str3 -> Y+13
;	str4 -> Y+0
_0x18C:
	LDD  R26,Y+37
	LDD  R27,Y+37+1
	SBIW R26,22
	BREQ _0x18E
; 0000 0371         show_pattern(a);
	CALL SUBOPT_0x29
; 0000 0372         delay_ms(250);
; 0000 0373         glcd_clear();
	CALL SUBOPT_0x2A
; 0000 0374         glcd_puts(str3,0,0,0,1,0);
	CALL SUBOPT_0x0
	CALL SUBOPT_0x1E
; 0000 0375         delay_ms(250);
	CALL SUBOPT_0x19
; 0000 0376         //delay_ms(250);
; 0000 0377 
; 0000 0378         z = key();
	CALL SUBOPT_0x2B
; 0000 0379         if(a[z]=='0'){
	BRNE _0x18F
; 0000 037A             a[z]='1';
	CALL SUBOPT_0x2C
	LDI  R30,LOW(49)
	RJMP _0x1D2
; 0000 037B         }else{
_0x18F:
; 0000 037C             a[z]='0';
	CALL SUBOPT_0x2C
	LDI  R30,LOW(48)
_0x1D2:
	ST   X,R30
; 0000 037D         }
; 0000 037E         //show_pattern(a);
; 0000 037F         }
	RJMP _0x18C
_0x18E:
; 0000 0380         glcd_clear();
	CALL SUBOPT_0x2D
; 0000 0381         glcd_puts(str4,0,0,0,1,0);
	CALL SUBOPT_0x0
	CALL SUBOPT_0x1E
; 0000 0382         delay_ms(250);
	CALL SUBOPT_0x19
; 0000 0383         w=key();
	CALL SUBOPT_0x2E
; 0000 0384         if(w==1){
	BRNE _0x191
; 0000 0385           a[17]='1';a[18]='1';a[19]='0';a[20]='0',a[21]='0',a[22]='0',a[23]='0';
	CALL SUBOPT_0x61
	CALL SUBOPT_0x30
; 0000 0386           puts(a);
; 0000 0387           //putsf("00000000/r");
; 0000 0388           }
; 0000 0389         if(w==2){
_0x191:
	LDD  R26,Y+35
	LDD  R27,Y+35+1
	SBIW R26,2
	BRNE _0x192
; 0000 038A           a[17]='1';a[18]='1';a[19]='0';a[20]='0',a[21]='0',a[22]='0',a[23]='1';
	CALL SUBOPT_0x61
	CALL SUBOPT_0x31
; 0000 038B           puts(a);
; 0000 038C           //putsf("00000001/r");
; 0000 038D         }
; 0000 038E         if(w==3) {
_0x192:
	LDD  R26,Y+35
	LDD  R27,Y+35+1
	SBIW R26,3
	BRNE _0x193
; 0000 038F           a[17]='1';a[18]='1';a[19]='0';a[20]='0',a[21]='0',a[22]='1',a[23]='0';
	CALL SUBOPT_0x62
	CALL SUBOPT_0x30
; 0000 0390           puts(a);
; 0000 0391           //putsf("00000010/r");
; 0000 0392         }
; 0000 0393         if(w==4){
_0x193:
	LDD  R26,Y+35
	LDD  R27,Y+35+1
	SBIW R26,4
	BRNE _0x194
; 0000 0394           a[17]='1';a[18]='1';a[19]='0';a[20]='0',a[21]='0',a[22]='1',a[23]='1';
	CALL SUBOPT_0x62
	CALL SUBOPT_0x31
; 0000 0395           puts(a);
; 0000 0396           //putsf("00000011/r");
; 0000 0397         }
; 0000 0398         if(w==5){
_0x194:
	LDD  R26,Y+35
	LDD  R27,Y+35+1
	SBIW R26,5
	BRNE _0x195
; 0000 0399           a[17]='1';a[18]='1';a[19]='0';a[20]='0',a[21]='1',a[22]='0',a[23]='0';
	CALL SUBOPT_0x63
	CALL SUBOPT_0x30
; 0000 039A           puts(a);
; 0000 039B           //putsf("00000100/r");
; 0000 039C         }
; 0000 039D         if(w==6){
_0x195:
	LDD  R26,Y+35
	LDD  R27,Y+35+1
	SBIW R26,6
	BRNE _0x196
; 0000 039E           a[17]='1';a[18]='1';a[19]='0';a[20]='0',a[21]='1',a[22]='0',a[23]='1';
	CALL SUBOPT_0x63
	CALL SUBOPT_0x31
; 0000 039F           puts(a);
; 0000 03A0           //putsf("00000101/r");
; 0000 03A1         }
; 0000 03A2         if(w==7){
_0x196:
	LDD  R26,Y+35
	LDD  R27,Y+35+1
	SBIW R26,7
	BRNE _0x197
; 0000 03A3           a[17]='1';a[18]='1';a[19]='0';a[20]='0',a[21]='1',a[22]='1',a[23]='0';
	CALL SUBOPT_0x64
	CALL SUBOPT_0x30
; 0000 03A4           puts(a);
; 0000 03A5           //putsf("00000110/r");
; 0000 03A6         }
; 0000 03A7         if(w==8){
_0x197:
	LDD  R26,Y+35
	LDD  R27,Y+35+1
	SBIW R26,8
	BRNE _0x198
; 0000 03A8           a[17]='1';a[18]='1';a[19]='0';a[20]='0',a[21]='1',a[22]='1',a[23]='1';
	CALL SUBOPT_0x64
	CALL SUBOPT_0x31
; 0000 03A9           puts(a);
; 0000 03AA           //putsf("00000111/r");
; 0000 03AB         }
; 0000 03AC         if(w==9){
_0x198:
	LDD  R26,Y+35
	LDD  R27,Y+35+1
	SBIW R26,9
	BRNE _0x199
; 0000 03AD           a[17]='1';a[18]='1';a[19]='0';a[20]='1',a[21]='0',a[22]='0',a[23]='0';
	CALL SUBOPT_0x65
	CALL SUBOPT_0x30
; 0000 03AE           puts(a);
; 0000 03AF           //putsf("00001000/r");
; 0000 03B0         }
; 0000 03B1         if(w==10){
_0x199:
	LDD  R26,Y+35
	LDD  R27,Y+35+1
	SBIW R26,10
	BRNE _0x19A
; 0000 03B2           a[17]='1';a[18]='1';a[19]='0';a[20]='1',a[21]='0',a[22]='0',a[23]='1';
	CALL SUBOPT_0x65
	CALL SUBOPT_0x31
; 0000 03B3           puts(a);
; 0000 03B4           //putsf("00001001/r");
; 0000 03B5         }
; 0000 03B6         if(w==11){
_0x19A:
	LDD  R26,Y+35
	LDD  R27,Y+35+1
	SBIW R26,11
	BRNE _0x19B
; 0000 03B7           a[17]='1';a[18]='1';a[19]='0';a[20]='1',a[21]='0',a[22]='1',a[23]='0';
	CALL SUBOPT_0x66
	CALL SUBOPT_0x30
; 0000 03B8           puts(a);
; 0000 03B9           //putsf("00001010/r");
; 0000 03BA         }
; 0000 03BB         if(w==12){
_0x19B:
	LDD  R26,Y+35
	LDD  R27,Y+35+1
	SBIW R26,12
	BRNE _0x19C
; 0000 03BC           a[17]='1';a[18]='1';a[19]='0';a[20]='1',a[21]='0',a[22]='1',a[23]='1';
	CALL SUBOPT_0x66
	CALL SUBOPT_0x31
; 0000 03BD           puts(a);
; 0000 03BE           //putsf("00001011/r");
; 0000 03BF         }
; 0000 03C0         if(w==13){
_0x19C:
	LDD  R26,Y+35
	LDD  R27,Y+35+1
	SBIW R26,13
	BRNE _0x19D
; 0000 03C1           a[17]='1';a[18]='1';a[19]='0';a[20]='1',a[21]='1',a[22]='0',a[23]='0';
	CALL SUBOPT_0x67
	CALL SUBOPT_0x30
; 0000 03C2           puts(a);
; 0000 03C3           //putsf("00001100/r");
; 0000 03C4         }
; 0000 03C5         if(w==14){
_0x19D:
	LDD  R26,Y+35
	LDD  R27,Y+35+1
	SBIW R26,14
	BRNE _0x19E
; 0000 03C6           a[17]='1';a[18]='1';a[19]='0';a[20]='1',a[21]='1',a[22]='0',a[23]='1';
	CALL SUBOPT_0x67
	CALL SUBOPT_0x31
; 0000 03C7           puts(a);
; 0000 03C8           //putsf("00001101/r");
; 0000 03C9         }
; 0000 03CA         if(w==15){
_0x19E:
	LDD  R26,Y+35
	LDD  R27,Y+35+1
	SBIW R26,15
	BRNE _0x19F
; 0000 03CB           a[17]='1';a[18]='1';a[19]='0';a[20]='1',a[21]='1',a[22]='1',a[23]='0';
	CALL SUBOPT_0x68
	CALL SUBOPT_0x30
; 0000 03CC           puts(a);
; 0000 03CD           //putsf("00001110/r");
; 0000 03CE         }
; 0000 03CF         if(w==16){
_0x19F:
	LDD  R26,Y+35
	LDD  R27,Y+35+1
	SBIW R26,16
	BRNE _0x1A0
; 0000 03D0           a[17]='1';a[18]='1';a[19]='0';a[20]='1',a[21]='1',a[22]='1',a[23]='1';
	CALL SUBOPT_0x68
	CALL SUBOPT_0x31
; 0000 03D1           puts(a);
; 0000 03D2           //putsf("00001111/r");
; 0000 03D3         }
; 0000 03D4          delay_ms(250);}
_0x1A0:
	CALL SUBOPT_0x19
	ADIW R28,39
; 0000 03D5     if(y == 8) {
_0x18A:
	LDI  R30,LOW(8)
	LDI  R31,HIGH(8)
	CP   R30,R16
	CPC  R31,R17
	BREQ PC+2
	RJMP _0x1A1
; 0000 03D6         int z,w;
; 0000 03D7         unsigned char a[]="00101110101110111";
; 0000 03D8         unsigned char str3[] = "new";
; 0000 03D9         unsigned char str4[] = "select block";
; 0000 03DA         while(z!=22){
	CALL SUBOPT_0x28
	LDI  R30,LOW(_0x1A2*2)
	LDI  R31,HIGH(_0x1A2*2)
	CALL __INITLOCB
;	page -> Y+134
;	str3 -> Y+123
;	str4 -> Y+112
;	str5 -> Y+101
;	str6 -> Y+90
;	str7 -> Y+79
;	str8 -> Y+68
;	str9 -> Y+57
;	str10 -> Y+46
;	home -> Y+41
;	z -> Y+37
;	w -> Y+35
;	a -> Y+17
;	str3 -> Y+13
;	str4 -> Y+0
_0x1A3:
	LDD  R26,Y+37
	LDD  R27,Y+37+1
	SBIW R26,22
	BREQ _0x1A5
; 0000 03DB         show_pattern(a);
	CALL SUBOPT_0x29
; 0000 03DC         delay_ms(250);
; 0000 03DD         glcd_clear();
	CALL SUBOPT_0x2A
; 0000 03DE         glcd_puts(str3,0,0,0,1,0);
	CALL SUBOPT_0x0
	CALL SUBOPT_0x1E
; 0000 03DF         delay_ms(250);
	CALL SUBOPT_0x19
; 0000 03E0         //delay_ms(250);
; 0000 03E1 
; 0000 03E2         z = key();
	CALL SUBOPT_0x2B
; 0000 03E3         if(a[z]=='0'){
	BRNE _0x1A6
; 0000 03E4             a[z]='1';
	CALL SUBOPT_0x2C
	LDI  R30,LOW(49)
	RJMP _0x1D3
; 0000 03E5         }else{
_0x1A6:
; 0000 03E6             a[z]='0';
	CALL SUBOPT_0x2C
	LDI  R30,LOW(48)
_0x1D3:
	ST   X,R30
; 0000 03E7         }
; 0000 03E8         //show_pattern(a);
; 0000 03E9         }
	RJMP _0x1A3
_0x1A5:
; 0000 03EA         glcd_clear();
	CALL SUBOPT_0x2D
; 0000 03EB         glcd_puts(str4,0,0,0,1,0);
	CALL SUBOPT_0x0
	CALL SUBOPT_0x1E
; 0000 03EC         delay_ms(250);
	CALL SUBOPT_0x19
; 0000 03ED         w=key();
	CALL SUBOPT_0x2E
; 0000 03EE         if(w==1){
	BRNE _0x1A8
; 0000 03EF           a[17]='1';a[18]='1';a[19]='1';a[20]='0',a[21]='0',a[22]='0',a[23]='0';
	CALL SUBOPT_0x69
	CALL SUBOPT_0x30
; 0000 03F0           puts(a);
; 0000 03F1           //putsf("00000000/r");
; 0000 03F2           }
; 0000 03F3         if(w==2){
_0x1A8:
	LDD  R26,Y+35
	LDD  R27,Y+35+1
	SBIW R26,2
	BRNE _0x1A9
; 0000 03F4           a[17]='1';a[18]='1';a[19]='1';a[20]='0',a[21]='0',a[22]='0',a[23]='1';
	CALL SUBOPT_0x69
	CALL SUBOPT_0x31
; 0000 03F5           puts(a);
; 0000 03F6           //putsf("00000001/r");
; 0000 03F7         }
; 0000 03F8         if(w==3) {
_0x1A9:
	LDD  R26,Y+35
	LDD  R27,Y+35+1
	SBIW R26,3
	BRNE _0x1AA
; 0000 03F9           a[17]='1';a[18]='1';a[19]='1';a[20]='0',a[21]='0',a[22]='1',a[23]='0';
	CALL SUBOPT_0x6A
	CALL SUBOPT_0x30
; 0000 03FA           puts(a);
; 0000 03FB           //putsf("00000010/r");
; 0000 03FC         }
; 0000 03FD         if(w==4){
_0x1AA:
	LDD  R26,Y+35
	LDD  R27,Y+35+1
	SBIW R26,4
	BRNE _0x1AB
; 0000 03FE           a[17]='1';a[18]='1';a[19]='1';a[20]='0',a[21]='0',a[22]='1',a[23]='1';
	CALL SUBOPT_0x6A
	CALL SUBOPT_0x31
; 0000 03FF           puts(a);
; 0000 0400           //putsf("00000011/r");
; 0000 0401         }
; 0000 0402         if(w==5){
_0x1AB:
	LDD  R26,Y+35
	LDD  R27,Y+35+1
	SBIW R26,5
	BRNE _0x1AC
; 0000 0403           a[17]='1';a[18]='1';a[19]='1';a[20]='0',a[21]='1',a[22]='0',a[23]='0';
	CALL SUBOPT_0x6B
	CALL SUBOPT_0x30
; 0000 0404           puts(a);
; 0000 0405           //putsf("00000100/r");
; 0000 0406         }
; 0000 0407         if(w==6){
_0x1AC:
	LDD  R26,Y+35
	LDD  R27,Y+35+1
	SBIW R26,6
	BRNE _0x1AD
; 0000 0408           a[17]='1';a[18]='1';a[19]='1';a[20]='0',a[21]='1',a[22]='0',a[23]='1';
	CALL SUBOPT_0x6B
	CALL SUBOPT_0x31
; 0000 0409           puts(a);
; 0000 040A           //putsf("00000101/r");
; 0000 040B         }
; 0000 040C         if(w==7){
_0x1AD:
	LDD  R26,Y+35
	LDD  R27,Y+35+1
	SBIW R26,7
	BRNE _0x1AE
; 0000 040D           a[17]='1';a[18]='1';a[19]='1';a[20]='0',a[21]='1',a[22]='1',a[23]='0';
	CALL SUBOPT_0x6C
	CALL SUBOPT_0x30
; 0000 040E           puts(a);
; 0000 040F           //putsf("00000110/r");
; 0000 0410         }
; 0000 0411         if(w==8){
_0x1AE:
	LDD  R26,Y+35
	LDD  R27,Y+35+1
	SBIW R26,8
	BRNE _0x1AF
; 0000 0412           a[17]='1';a[18]='1';a[19]='1';a[20]='0',a[21]='1',a[22]='1',a[23]='1';
	CALL SUBOPT_0x6C
	CALL SUBOPT_0x31
; 0000 0413           puts(a);
; 0000 0414           //putsf("00000111/r");
; 0000 0415         }
; 0000 0416         if(w==9){
_0x1AF:
	LDD  R26,Y+35
	LDD  R27,Y+35+1
	SBIW R26,9
	BRNE _0x1B0
; 0000 0417           a[17]='1';a[18]='1';a[19]='1';a[20]='1',a[21]='0',a[22]='0',a[23]='0';
	CALL SUBOPT_0x6D
	CALL SUBOPT_0x30
; 0000 0418           puts(a);
; 0000 0419           //putsf("00001000/r");
; 0000 041A         }
; 0000 041B         if(w==10){
_0x1B0:
	LDD  R26,Y+35
	LDD  R27,Y+35+1
	SBIW R26,10
	BRNE _0x1B1
; 0000 041C           a[17]='1';a[18]='1';a[19]='1';a[20]='1',a[21]='0',a[22]='0',a[23]='1';
	CALL SUBOPT_0x6D
	CALL SUBOPT_0x31
; 0000 041D           puts(a);
; 0000 041E           //putsf("00001001/r");
; 0000 041F         }
; 0000 0420         if(w==11){
_0x1B1:
	LDD  R26,Y+35
	LDD  R27,Y+35+1
	SBIW R26,11
	BRNE _0x1B2
; 0000 0421           a[17]='1';a[18]='1';a[19]='1';a[20]='1',a[21]='0',a[22]='1',a[23]='0';
	CALL SUBOPT_0x6E
	CALL SUBOPT_0x30
; 0000 0422           puts(a);
; 0000 0423           //putsf("00001010/r");
; 0000 0424         }
; 0000 0425         if(w==12){
_0x1B2:
	LDD  R26,Y+35
	LDD  R27,Y+35+1
	SBIW R26,12
	BRNE _0x1B3
; 0000 0426           a[17]='1';a[18]='1';a[19]='1';a[20]='1',a[21]='0',a[22]='1',a[23]='1';
	CALL SUBOPT_0x6E
	CALL SUBOPT_0x31
; 0000 0427           puts(a);
; 0000 0428           //putsf("00001011/r");
; 0000 0429         }
; 0000 042A         if(w==13){
_0x1B3:
	LDD  R26,Y+35
	LDD  R27,Y+35+1
	SBIW R26,13
	BRNE _0x1B4
; 0000 042B           a[17]='1';a[18]='1';a[19]='1';a[20]='1',a[21]='1',a[22]='0',a[23]='0';
	CALL SUBOPT_0x6F
	CALL SUBOPT_0x30
; 0000 042C           puts(a);
; 0000 042D           //putsf("00001100/r");
; 0000 042E         }
; 0000 042F         if(w==14){
_0x1B4:
	LDD  R26,Y+35
	LDD  R27,Y+35+1
	SBIW R26,14
	BRNE _0x1B5
; 0000 0430           a[17]='1';a[18]='1';a[19]='1';a[20]='1',a[21]='1',a[22]='0',a[23]='1';
	CALL SUBOPT_0x6F
	CALL SUBOPT_0x31
; 0000 0431           puts(a);
; 0000 0432           //putsf("00001101/r");
; 0000 0433         }
; 0000 0434         if(w==15){
_0x1B5:
	LDD  R26,Y+35
	LDD  R27,Y+35+1
	SBIW R26,15
	BRNE _0x1B6
; 0000 0435           a[17]='1';a[18]='1';a[19]='1';a[20]='1',a[21]='1',a[22]='1',a[23]='0';
	CALL SUBOPT_0x70
	CALL SUBOPT_0x30
; 0000 0436           puts(a);
; 0000 0437           //putsf("00001110/r");
; 0000 0438         }
; 0000 0439         if(w==16){
_0x1B6:
	LDD  R26,Y+35
	LDD  R27,Y+35+1
	SBIW R26,16
	BRNE _0x1B7
; 0000 043A           a[17]='1';a[18]='1';a[19]='1';a[20]='1',a[21]='1',a[22]='1',a[23]='1';
	CALL SUBOPT_0x70
	CALL SUBOPT_0x31
; 0000 043B           puts(a);
; 0000 043C           //putsf("00001111/r");
; 0000 043D         }
; 0000 043E          delay_ms(250);}
_0x1B7:
	CALL SUBOPT_0x19
	ADIW R28,39
; 0000 043F     if(y ==23) {
_0x1A1:
	LDI  R30,LOW(23)
	LDI  R31,HIGH(23)
	CP   R30,R16
	CPC  R31,R17
	BRNE _0x1B8
; 0000 0440          page=1;
	CALL SUBOPT_0x27
; 0000 0441          return page;
; 0000 0442          delay_ms(250);}
; 0000 0443 
; 0000 0444 
; 0000 0445 
; 0000 0446 }
_0x1B8:
_0x20A0003:
	LDD  R17,Y+1
	LDD  R16,Y+0
	ADIW R28,63
	ADIW R28,34
	RET
; .FEND
;int Namayesh_Kelid_Feshorde_SHode4(int page){
; 0000 0447 int Namayesh_Kelid_Feshorde_SHode4(int page){
_Namayesh_Kelid_Feshorde_SHode4:
; .FSTART _Namayesh_Kelid_Feshorde_SHode4
; 0000 0448     char buffer[50];
; 0000 0449     char buffer1[]="Temp=";
; 0000 044A     unsigned char home[] = "HOME";
; 0000 044B     int y;
; 0000 044C 
; 0000 044D     glcd_clear();
	ST   -Y,R27
	ST   -Y,R26
	SBIW R28,61
	LDI  R24,11
	LDI  R26,LOW(0)
	LDI  R27,HIGH(0)
	LDI  R30,LOW(_0x1B9*2)
	LDI  R31,HIGH(_0x1B9*2)
	CALL __INITLOCB
	ST   -Y,R17
	ST   -Y,R16
;	page -> Y+63
;	buffer -> Y+13
;	buffer1 -> Y+7
;	home -> Y+2
;	y -> R16,R17
	CALL _glcd_clear
; 0000 044E     scanf("%s",buffer);
	__POINTW1FN _0x0,0
	ST   -Y,R31
	ST   -Y,R30
	MOVW R30,R28
	ADIW R30,15
	CLR  R22
	CLR  R23
	CALL __PUTPARD1
	LDI  R24,4
	CALL _scanf
	ADIW R28,6
; 0000 044F     glcd_puts(buffer1,0,3,0,1,0);
	CALL SUBOPT_0x22
	CALL SUBOPT_0x15
; 0000 0450     glcd_puts(buffer,2,5,0,1,0);
	MOVW R30,R28
	ADIW R30,13
	ST   -Y,R31
	ST   -Y,R30
	LDI  R30,LOW(2)
	LDI  R31,HIGH(2)
	ST   -Y,R31
	ST   -Y,R30
	CALL SUBOPT_0x16
; 0000 0451     /*glcd_puts(home,0,7,0,1,0);
; 0000 0452     y=key();
; 0000 0453 
; 0000 0454     if(y ==23) {
; 0000 0455       page=1;
; 0000 0456       return page;
; 0000 0457       delay_ms(250);}     */
; 0000 0458 
; 0000 0459 }
	LDD  R17,Y+1
	LDD  R16,Y+0
	ADIW R28,63
	ADIW R28,2
	RET
; .FEND
;void main(void)
; 0000 045B {
_main:
; .FSTART _main
; 0000 045C 
; 0000 045D 
; 0000 045E #pragma used+
; 0000 045F int i,j,count,length,l,k,y=0,page=1,ii;
; 0000 0460 char buf[];
; 0000 0461 byte read_data;
; 0000 0462 byte read_arr[30];
; 0000 0463 
; 0000 0464 
; 0000 0465 
; 0000 0466 #pragma used-
; 0000 0467 
; 0000 0468 DDRD=0x80;
	SBIW R28,43
	LDI  R30,LOW(1)
	STD  Y+33,R30
	LDI  R30,LOW(0)
	STD  Y+34,R30
	STD  Y+35,R30
	STD  Y+36,R30
;	i -> R16,R17
;	j -> R18,R19
;	count -> R20,R21
;	length -> Y+41
;	l -> Y+39
;	k -> Y+37
;	y -> Y+35
;	page -> Y+33
;	ii -> Y+31
;	buf -> Y+31
;	read_data -> Y+30
;	read_arr -> Y+0
	LDI  R30,LOW(128)
	OUT  0x11,R30
; 0000 0469 DDRC = 0x0F;
	LDI  R30,LOW(15)
	OUT  0x14,R30
; 0000 046A 
; 0000 046B UCSRA=(0<<RXC) | (0<<TXC) | (0<<UDRE) | (0<<FE) | (0<<DOR) | (0<<UPE) | (0<<U2X) | (0<<MPCM);
	LDI  R30,LOW(0)
	OUT  0xB,R30
; 0000 046C UCSRB=(0<<RXCIE) | (0<<TXCIE) | (0<<UDRIE) | (1<<RXEN) | (1<<TXEN) | (0<<UCSZ2) | (0<<RXB8) | (0<<TXB8);
	LDI  R30,LOW(24)
	OUT  0xA,R30
; 0000 046D UCSRC=(1<<URSEL) | (0<<UMSEL) | (0<<UPM1) | (0<<UPM0) | (0<<USBS) | (1<<UCSZ1) | (1<<UCSZ0) | (0<<UCPOL);
	LDI  R30,LOW(134)
	OUT  0x20,R30
; 0000 046E UBRRH=0x00;
	LDI  R30,LOW(0)
	OUT  0x20,R30
; 0000 046F UBRRL=0x33;
	LDI  R30,LOW(51)
	OUT  0x9,R30
; 0000 0470 
; 0000 0471 glcd_on();
	CALL _glcd_on
; 0000 0472 
; 0000 0473 
; 0000 0474 
; 0000 0475 
; 0000 0476 
; 0000 0477 //DDRB=0x0f;
; 0000 0478 //PORTB=0Xf0;
; 0000 0479 
; 0000 047A 
; 0000 047B 
; 0000 047C 
; 0000 047D while (1)
_0x1BA:
; 0000 047E     {
; 0000 047F     // Please write your application code here
; 0000 0480    // for(ii=0;ii<100;ii++){
; 0000 0481     if(page==1){
	LDD  R26,Y+33
	LDD  R27,Y+33+1
	SBIW R26,1
	BRNE _0x1BD
; 0000 0482     if(y<255){
	CALL SUBOPT_0x71
	BRGE _0x1BE
; 0000 0483     page=Namayesh_Kelid_Feshorde_SHode(page);
	LDD  R26,Y+33
	LDD  R27,Y+33+1
	RCALL _Namayesh_Kelid_Feshorde_SHode
	STD  Y+33,R30
	STD  Y+33+1,R31
; 0000 0484     }
; 0000 0485     }
_0x1BE:
; 0000 0486 
; 0000 0487     if(page==12){
_0x1BD:
	LDD  R26,Y+33
	LDD  R27,Y+33+1
	SBIW R26,12
	BRNE _0x1BF
; 0000 0488     if(y<255){
	CALL SUBOPT_0x71
	BRGE _0x1C0
; 0000 0489     page=Namayesh_Kelid_Feshorde_SHode2(page);
	LDD  R26,Y+33
	LDD  R27,Y+33+1
	RCALL _Namayesh_Kelid_Feshorde_SHode2
	STD  Y+33,R30
	STD  Y+33+1,R31
; 0000 048A     }
; 0000 048B     }
_0x1C0:
; 0000 048C 
; 0000 048D     if(page==22){
_0x1BF:
	LDD  R26,Y+33
	LDD  R27,Y+33+1
	SBIW R26,22
	BRNE _0x1C1
; 0000 048E     if(y<255){
	CALL SUBOPT_0x71
	BRGE _0x1C2
; 0000 048F     page=Namayesh_Kelid_Feshorde_SHode3(page);
	LDD  R26,Y+33
	LDD  R27,Y+33+1
	RCALL _Namayesh_Kelid_Feshorde_SHode3
	STD  Y+33,R30
	STD  Y+33+1,R31
; 0000 0490     }
; 0000 0491     }
_0x1C2:
; 0000 0492 
; 0000 0493     if(page==32){
_0x1C1:
	LDD  R26,Y+33
	LDD  R27,Y+33+1
	SBIW R26,32
	BRNE _0x1C3
; 0000 0494     if(y<255){
	CALL SUBOPT_0x71
	BRGE _0x1C4
; 0000 0495     page=Namayesh_Kelid_Feshorde_SHode4(page);
	LDD  R26,Y+33
	LDD  R27,Y+33+1
	RCALL _Namayesh_Kelid_Feshorde_SHode4
	STD  Y+33,R30
	STD  Y+33+1,R31
; 0000 0496     }
; 0000 0497 
; 0000 0498     }
_0x1C4:
; 0000 0499     }
_0x1C3:
	RJMP _0x1BA
; 0000 049A 
; 0000 049B 
; 0000 049C }
_0x1C5:
	RJMP _0x1C5
; .FEND
	#ifndef __SLEEP_DEFINED__
	#define __SLEEP_DEFINED__
	.EQU __se_bit=0x80
	.EQU __sm_mask=0x70
	.EQU __sm_powerdown=0x20
	.EQU __sm_powersave=0x30
	.EQU __sm_standby=0x60
	.EQU __sm_ext_standby=0x70
	.EQU __sm_adc_noise_red=0x10
	.SET power_ctrl_reg=mcucr
	#endif

	.CSEG
_getchar:
; .FSTART _getchar
getchar0:
     sbis usr,rxc
     rjmp getchar0
     in   r30,udr
	RET
; .FEND
_putchar:
; .FSTART _putchar
	ST   -Y,R26
putchar0:
     sbis usr,udre
     rjmp putchar0
     ld   r30,y
     out  udr,r30
	ADIW R28,1
	RET
; .FEND
_puts:
; .FSTART _puts
	ST   -Y,R27
	ST   -Y,R26
	ST   -Y,R17
_0x2000003:
	LDD  R26,Y+1
	LDD  R27,Y+1+1
	LD   R30,X+
	STD  Y+1,R26
	STD  Y+1+1,R27
	MOV  R17,R30
	CPI  R30,0
	BREQ _0x2000005
	MOV  R26,R17
	RCALL _putchar
	RJMP _0x2000003
_0x2000005:
	LDI  R26,LOW(10)
	RCALL _putchar
	LDD  R17,Y+0
	ADIW R28,3
	RET
; .FEND
_get_usart_G100:
; .FSTART _get_usart_G100
	ST   -Y,R27
	ST   -Y,R26
	ST   -Y,R17
	LDD  R26,Y+1
	LDD  R27,Y+1+1
	LDI  R30,LOW(0)
	ST   X,R30
	LDD  R26,Y+3
	LDD  R27,Y+3+1
	LD   R30,X
	MOV  R17,R30
	CPI  R30,0
	BREQ _0x2000078
	LDI  R30,LOW(0)
	ST   X,R30
	RJMP _0x2000079
_0x2000078:
	RCALL _getchar
	MOV  R17,R30
_0x2000079:
	MOV  R30,R17
	LDD  R17,Y+0
	ADIW R28,5
	RET
; .FEND
__scanf_G100:
; .FSTART __scanf_G100
	PUSH R15
	ST   -Y,R27
	ST   -Y,R26
	SBIW R28,4
	CALL __SAVELOCR6
	LDI  R30,LOW(0)
	LDI  R31,HIGH(0)
	STD  Y+8,R30
	STD  Y+8+1,R31
	MOV  R20,R30
_0x200007F:
	LDD  R30,Y+16
	LDD  R31,Y+16+1
	ADIW R30,1
	STD  Y+16,R30
	STD  Y+16+1,R31
	SBIW R30,1
	LPM  R30,Z
	MOV  R19,R30
	CPI  R30,0
	BRNE PC+2
	RJMP _0x2000081
	CALL SUBOPT_0x72
	BREQ _0x2000082
_0x2000083:
	IN   R30,SPL
	IN   R31,SPH
	ST   -Y,R31
	ST   -Y,R30
	PUSH R20
	CALL SUBOPT_0x73
	POP  R20
	MOV  R19,R30
	CPI  R30,0
	BREQ _0x2000086
	CALL SUBOPT_0x72
	BRNE _0x2000087
_0x2000086:
	RJMP _0x2000085
_0x2000087:
	CALL SUBOPT_0x74
	BRGE _0x2000088
	LDI  R30,LOW(65535)
	LDI  R31,HIGH(65535)
	RJMP _0x20A0001
_0x2000088:
	RJMP _0x2000083
_0x2000085:
	MOV  R20,R19
	RJMP _0x2000089
_0x2000082:
	CPI  R19,37
	BREQ PC+2
	RJMP _0x200008A
	LDI  R21,LOW(0)
_0x200008B:
	LDD  R30,Y+16
	LDD  R31,Y+16+1
	LPM  R19,Z+
	STD  Y+16,R30
	STD  Y+16+1,R31
	CPI  R19,48
	BRLO _0x200008F
	CPI  R19,58
	BRLO _0x200008E
_0x200008F:
	RJMP _0x200008D
_0x200008E:
	LDI  R26,LOW(10)
	MUL  R21,R26
	MOV  R21,R0
	MOV  R30,R19
	SUBI R30,LOW(48)
	ADD  R21,R30
	RJMP _0x200008B
_0x200008D:
	CPI  R19,0
	BRNE _0x2000091
	RJMP _0x2000081
_0x2000091:
_0x2000092:
	IN   R30,SPL
	IN   R31,SPH
	ST   -Y,R31
	ST   -Y,R30
	PUSH R20
	CALL SUBOPT_0x73
	POP  R20
	MOV  R18,R30
	MOV  R26,R30
	CALL _isspace
	CPI  R30,0
	BREQ _0x2000094
	CALL SUBOPT_0x74
	BRGE _0x2000095
	LDI  R30,LOW(65535)
	LDI  R31,HIGH(65535)
	RJMP _0x20A0001
_0x2000095:
	RJMP _0x2000092
_0x2000094:
	CPI  R18,0
	BRNE _0x2000096
	RJMP _0x2000097
_0x2000096:
	MOV  R20,R18
	CPI  R21,0
	BRNE _0x2000098
	LDI  R21,LOW(255)
_0x2000098:
	MOV  R30,R19
	CPI  R30,LOW(0x63)
	BRNE _0x200009C
	CALL SUBOPT_0x75
	IN   R30,SPL
	IN   R31,SPH
	ST   -Y,R31
	ST   -Y,R30
	PUSH R20
	CALL SUBOPT_0x73
	POP  R20
	MOVW R26,R16
	ST   X,R30
	CALL SUBOPT_0x74
	BRGE _0x200009D
	LDI  R30,LOW(65535)
	LDI  R31,HIGH(65535)
	RJMP _0x20A0001
_0x200009D:
	RJMP _0x200009B
_0x200009C:
	CPI  R30,LOW(0x73)
	BRNE _0x20000A6
	CALL SUBOPT_0x75
_0x200009F:
	MOV  R30,R21
	SUBI R21,1
	CPI  R30,0
	BREQ _0x20000A1
	IN   R30,SPL
	IN   R31,SPH
	ST   -Y,R31
	ST   -Y,R30
	PUSH R20
	CALL SUBOPT_0x73
	POP  R20
	MOV  R19,R30
	CPI  R30,0
	BREQ _0x20000A3
	CALL SUBOPT_0x72
	BREQ _0x20000A2
_0x20000A3:
	CALL SUBOPT_0x74
	BRGE _0x20000A5
	LDI  R30,LOW(65535)
	LDI  R31,HIGH(65535)
	RJMP _0x20A0001
_0x20000A5:
	RJMP _0x20000A1
_0x20000A2:
	PUSH R17
	PUSH R16
	__ADDWRN 16,17,1
	MOV  R30,R19
	POP  R26
	POP  R27
	ST   X,R30
	RJMP _0x200009F
_0x20000A1:
	MOVW R26,R16
	LDI  R30,LOW(0)
	ST   X,R30
	RJMP _0x200009B
_0x20000A6:
	SET
	BLD  R15,1
	CLT
	BLD  R15,2
	MOV  R30,R19
	CPI  R30,LOW(0x64)
	BREQ _0x20000AB
	CPI  R30,LOW(0x69)
	BRNE _0x20000AC
_0x20000AB:
	CLT
	BLD  R15,1
	RJMP _0x20000AD
_0x20000AC:
	CPI  R30,LOW(0x75)
	BRNE _0x20000AE
_0x20000AD:
	LDI  R18,LOW(10)
	RJMP _0x20000A9
_0x20000AE:
	CPI  R30,LOW(0x78)
	BRNE _0x20000AF
	LDI  R18,LOW(16)
	RJMP _0x20000A9
_0x20000AF:
	CPI  R30,LOW(0x25)
	BRNE _0x20000B2
	RJMP _0x20000B1
_0x20000B2:
	RJMP _0x20A0002
_0x20000A9:
	LDI  R30,LOW(0)
	STD  Y+6,R30
	STD  Y+6+1,R30
	SET
	BLD  R15,0
_0x20000B3:
	MOV  R30,R21
	SUBI R21,1
	CPI  R30,0
	BRNE PC+2
	RJMP _0x20000B5
	IN   R30,SPL
	IN   R31,SPH
	ST   -Y,R31
	ST   -Y,R30
	PUSH R20
	CALL SUBOPT_0x73
	POP  R20
	MOV  R19,R30
	CPI  R30,LOW(0x21)
	BRSH _0x20000B6
	CALL SUBOPT_0x74
	BRGE _0x20000B7
	LDI  R30,LOW(65535)
	LDI  R31,HIGH(65535)
	RJMP _0x20A0001
_0x20000B7:
	RJMP _0x20000B8
_0x20000B6:
	SBRC R15,1
	RJMP _0x20000B9
	SET
	BLD  R15,1
	CPI  R19,45
	BRNE _0x20000BA
	BLD  R15,2
	RJMP _0x20000B3
_0x20000BA:
	CPI  R19,43
	BREQ _0x20000B3
_0x20000B9:
	CPI  R18,16
	BRNE _0x20000BC
	MOV  R26,R19
	CALL _isxdigit
	CPI  R30,0
	BREQ _0x20000B8
	RJMP _0x20000BE
_0x20000BC:
	MOV  R26,R19
	CALL _isdigit
	CPI  R30,0
	BRNE _0x20000BF
_0x20000B8:
	SBRC R15,0
	RJMP _0x20000C1
	MOV  R20,R19
	RJMP _0x20000B5
_0x20000BF:
_0x20000BE:
	CPI  R19,97
	BRLO _0x20000C2
	SUBI R19,LOW(87)
	RJMP _0x20000C3
_0x20000C2:
	CPI  R19,65
	BRLO _0x20000C4
	SUBI R19,LOW(55)
	RJMP _0x20000C5
_0x20000C4:
	SUBI R19,LOW(48)
_0x20000C5:
_0x20000C3:
	MOV  R30,R18
	LDD  R26,Y+6
	LDD  R27,Y+6+1
	LDI  R31,0
	CALL __MULW12U
	MOVW R26,R30
	MOV  R30,R19
	LDI  R31,0
	ADD  R30,R26
	ADC  R31,R27
	STD  Y+6,R30
	STD  Y+6+1,R31
	CLT
	BLD  R15,0
	RJMP _0x20000B3
_0x20000B5:
	CALL SUBOPT_0x75
	SBRS R15,2
	RJMP _0x20000C6
	LDD  R30,Y+6
	LDD  R31,Y+6+1
	CALL __ANEGW1
	STD  Y+6,R30
	STD  Y+6+1,R31
_0x20000C6:
	LDD  R30,Y+6
	LDD  R31,Y+6+1
	MOVW R26,R16
	ST   X+,R30
	ST   X,R31
_0x200009B:
	LDD  R30,Y+8
	LDD  R31,Y+8+1
	ADIW R30,1
	STD  Y+8,R30
	STD  Y+8+1,R31
	RJMP _0x20000C7
_0x200008A:
_0x20000B1:
	IN   R30,SPL
	IN   R31,SPH
	ST   -Y,R31
	ST   -Y,R30
	PUSH R20
	CALL SUBOPT_0x73
	POP  R20
	CP   R30,R19
	BREQ _0x20000C8
	CALL SUBOPT_0x74
	BRGE _0x20000C9
	LDI  R30,LOW(65535)
	LDI  R31,HIGH(65535)
	RJMP _0x20A0001
_0x20000C9:
_0x2000097:
	LDD  R30,Y+8
	LDD  R31,Y+8+1
	SBIW R30,0
	BRNE _0x20000CA
	LDI  R30,LOW(65535)
	LDI  R31,HIGH(65535)
	RJMP _0x20A0001
_0x20000CA:
	RJMP _0x2000081
_0x20000C8:
_0x20000C7:
_0x2000089:
	RJMP _0x200007F
_0x2000081:
_0x20000C1:
_0x20A0002:
	LDD  R30,Y+8
	LDD  R31,Y+8+1
_0x20A0001:
	CALL __LOADLOCR6
	ADIW R28,18
	POP  R15
	RET
; .FEND
_scanf:
; .FSTART _scanf
	PUSH R15
	MOV  R15,R24
	SBIW R28,3
	ST   -Y,R17
	ST   -Y,R16
	MOVW R26,R28
	ADIW R26,1
	CALL __ADDW2R15
	MOVW R16,R26
	LDI  R30,LOW(0)
	STD  Y+3,R30
	STD  Y+3+1,R30
	MOVW R26,R28
	ADIW R26,5
	CALL __ADDW2R15
	CALL __GETW1P
	ST   -Y,R31
	ST   -Y,R30
	ST   -Y,R17
	ST   -Y,R16
	LDI  R30,LOW(_get_usart_G100)
	LDI  R31,HIGH(_get_usart_G100)
	ST   -Y,R31
	ST   -Y,R30
	MOVW R26,R28
	ADIW R26,8
	RCALL __scanf_G100
	LDD  R17,Y+1
	LDD  R16,Y+0
	ADIW R28,5
	POP  R15
	RET
; .FEND

	.CSEG
_strlen:
; .FSTART _strlen
	ST   -Y,R27
	ST   -Y,R26
    ld   r26,y+
    ld   r27,y+
    clr  r30
    clr  r31
strlen0:
    ld   r22,x+
    tst  r22
    breq strlen1
    adiw r30,1
    rjmp strlen0
strlen1:
    ret
; .FEND

	.CSEG

	.DSEG

	.CSEG

	.CSEG

	.CSEG
_isdigit:
; .FSTART _isdigit
	ST   -Y,R26
    ldi  r30,1
    ld   r31,y+
    cpi  r31,'0'
    brlo isdigit0
    cpi  r31,'9'+1
    brlo isdigit1
isdigit0:
    clr  r30
isdigit1:
    ret
; .FEND
_isspace:
; .FSTART _isspace
	ST   -Y,R26
    ldi  r30,1
    ld   r31,y+
    cpi  r31,' '
    breq isspace1
    cpi  r31,9
    brlo isspace0
    cpi  r31,13+1
    brlo isspace1
isspace0:
    clr  r30
isspace1:
    ret
; .FEND
_isxdigit:
; .FSTART _isxdigit
	ST   -Y,R26
    ldi  r30,1
    ld   r31,y+
    subi r31,0x30
    brcs isxdigit0
    cpi  r31,10
    brcs isxdigit1
    andi r31,0x5f
    subi r31,7
    cpi  r31,10
    brcs isxdigit0
    cpi  r31,16
    brcs isxdigit1
isxdigit0:
    clr  r30
isxdigit1:
    ret
; .FEND

	.DSEG
_prevLet_G000:
	.BYTE 0x2
_stat_G000:
	.BYTE 0x1
_prevX_G000:
	.BYTE 0x1
_prevY_G000:
	.BYTE 0x1
__seed_G102:
	.BYTE 0x4

	.CSEG
;OPTIMIZER ADDED SUBROUTINE, CALLED 59 TIMES, CODE SIZE REDUCTION:113 WORDS
SUBOPT_0x0:
	LDI  R30,LOW(0)
	LDI  R31,HIGH(0)
	ST   -Y,R31
	ST   -Y,R30
	RET

;OPTIMIZER ADDED SUBROUTINE, CALLED 2 TIMES, CODE SIZE REDUCTION:4 WORDS
SUBOPT_0x1:
	CALL __LSLW3
	MOVW R26,R30
	MOV  R30,R17
	LDI  R31,0
	ADD  R30,R26
	ADC  R31,R27
	SUBI R30,LOW(-_font*2)
	SBCI R31,HIGH(-_font*2)
	RET

;OPTIMIZER ADDED SUBROUTINE, CALLED 2 TIMES, CODE SIZE REDUCTION:1 WORDS
SUBOPT_0x2:
	LDD  R26,Y+6
	LDD  R27,Y+6+1
	CLR  R30
	ADD  R26,R17
	ADC  R27,R30
	LD   R30,X
	RET

;OPTIMIZER ADDED SUBROUTINE, CALLED 3 TIMES, CODE SIZE REDUCTION:5 WORDS
SUBOPT_0x3:
	__GETW2SX 71
	RET

;OPTIMIZER ADDED SUBROUTINE, CALLED 2 TIMES, CODE SIZE REDUCTION:1 WORDS
SUBOPT_0x4:
	MOV  R30,R17
	LDI  R31,0
	CALL __LSLW3
	MOVW R26,R28
	ADIW R26,4
	RET

;OPTIMIZER ADDED SUBROUTINE, CALLED 2 TIMES, CODE SIZE REDUCTION:7 WORDS
SUBOPT_0x5:
	LDS  R30,_prevLet_G000
	LDS  R31,_prevLet_G000+1
	SUBI R30,LOW(193)
	SBCI R31,HIGH(193)
	LDI  R26,LOW(6)
	LDI  R27,HIGH(6)
	CALL __MULW12U
	SUBI R30,LOW(-_map*2)
	SBCI R31,HIGH(-_map*2)
	RET

;OPTIMIZER ADDED SUBROUTINE, CALLED 2 TIMES, CODE SIZE REDUCTION:5 WORDS
SUBOPT_0x6:
	LDD  R30,Y+6
	LDI  R31,0
	SUBI R30,LOW(193)
	SBCI R31,HIGH(193)
	LDI  R26,LOW(6)
	LDI  R27,HIGH(6)
	CALL __MULW12U
	SUBI R30,LOW(-_map*2)
	SBCI R31,HIGH(-_map*2)
	RET

;OPTIMIZER ADDED SUBROUTINE, CALLED 4 TIMES, CODE SIZE REDUCTION:3 WORDS
SUBOPT_0x7:
	ST   -Y,R31
	ST   -Y,R30
	LDD  R30,Y+6
	LDD  R31,Y+6+1
	RET

;OPTIMIZER ADDED SUBROUTINE, CALLED 2 TIMES, CODE SIZE REDUCTION:3 WORDS
SUBOPT_0x8:
	LDD  R26,Y+9
	LDD  R27,Y+9+1
	CALL _strlen
	MOV  R26,R17
	LDI  R27,0
	CP   R26,R30
	CPC  R27,R31
	RET

;OPTIMIZER ADDED SUBROUTINE, CALLED 7 TIMES, CODE SIZE REDUCTION:21 WORDS
SUBOPT_0x9:
	MOV  R30,R17
	LDI  R31,0
	LDD  R26,Y+9
	LDD  R27,Y+9+1
	ADD  R26,R30
	ADC  R27,R31
	RET

;OPTIMIZER ADDED SUBROUTINE, CALLED 4 TIMES, CODE SIZE REDUCTION:3 WORDS
SUBOPT_0xA:
	LDD  R30,Y+8
	LDD  R31,Y+8+1
	ST   -Y,R31
	ST   -Y,R30
	RET

;OPTIMIZER ADDED SUBROUTINE, CALLED 3 TIMES, CODE SIZE REDUCTION:1 WORDS
SUBOPT_0xB:
	ST   -Y,R30
	LDD  R26,Y+9
	JMP  _glcd_putchar

;OPTIMIZER ADDED SUBROUTINE, CALLED 2 TIMES, CODE SIZE REDUCTION:5 WORDS
SUBOPT_0xC:
	LDD  R30,Y+2
	LDI  R31,0
	SBRC R30,7
	SER  R31
	ADIW R30,8
	MOVW R26,R30
	LDD  R30,Y+3
	LDI  R31,0
	CALL __MULW12
	RET

;OPTIMIZER ADDED SUBROUTINE, CALLED 5 TIMES, CODE SIZE REDUCTION:5 WORDS
SUBOPT_0xD:
	LDD  R30,Y+3
	LDI  R26,LOW(8)
	MUL  R30,R26
	MOVW R30,R0
	RET

;OPTIMIZER ADDED SUBROUTINE, CALLED 2 TIMES, CODE SIZE REDUCTION:3 WORDS
SUBOPT_0xE:
	LDD  R30,Y+3
	LDI  R31,0
	LDD  R26,Y+5
	LDD  R27,Y+5+1
	ADD  R30,R26
	ADC  R31,R27
	STD  Y+5,R30
	STD  Y+5+1,R31
	RET

;OPTIMIZER ADDED SUBROUTINE, CALLED 4 TIMES, CODE SIZE REDUCTION:12 WORDS
SUBOPT_0xF:
	MOV  R30,R17
	LDI  R31,0
	LDD  R26,Y+9
	LDD  R27,Y+9+1
	ADD  R30,R26
	ADC  R31,R27
	LDD  R26,Z+1
	RET

;OPTIMIZER ADDED SUBROUTINE, CALLED 2 TIMES, CODE SIZE REDUCTION:7 WORDS
SUBOPT_0x10:
	LDD  R30,Y+4
	LDI  R26,LOW(8)
	MUL  R30,R26
	MOVW R30,R0
	LDD  R26,Y+8
	LDD  R27,Y+8+1
	SUB  R26,R30
	SBC  R27,R31
	ST   -Y,R27
	ST   -Y,R26
	RJMP SUBOPT_0xA

;OPTIMIZER ADDED SUBROUTINE, CALLED 3 TIMES, CODE SIZE REDUCTION:1 WORDS
SUBOPT_0x11:
	SUB  R26,R30
	SBC  R27,R31
	STD  Y+7,R26
	STD  Y+7+1,R27
	RET

;OPTIMIZER ADDED SUBROUTINE, CALLED 38 TIMES, CODE SIZE REDUCTION:71 WORDS
SUBOPT_0x12:
	ST   -Y,R31
	ST   -Y,R30
	RJMP SUBOPT_0x0

;OPTIMIZER ADDED SUBROUTINE, CALLED 3 TIMES, CODE SIZE REDUCTION:15 WORDS
SUBOPT_0x13:
	LDI  R30,LOW(1)
	LDI  R31,HIGH(1)
	ST   -Y,R31
	ST   -Y,R30
	LDI  R30,LOW(0)
	ST   -Y,R30
	LDI  R30,LOW(1)
	ST   -Y,R30
	LDI  R26,LOW(0)
	JMP  _glcd_puts

;OPTIMIZER ADDED SUBROUTINE, CALLED 3 TIMES, CODE SIZE REDUCTION:1 WORDS
SUBOPT_0x14:
	MOVW R30,R28
	ADIW R30,18
	RJMP SUBOPT_0x12

;OPTIMIZER ADDED SUBROUTINE, CALLED 4 TIMES, CODE SIZE REDUCTION:24 WORDS
SUBOPT_0x15:
	LDI  R30,LOW(3)
	LDI  R31,HIGH(3)
	ST   -Y,R31
	ST   -Y,R30
	LDI  R30,LOW(0)
	ST   -Y,R30
	LDI  R30,LOW(1)
	ST   -Y,R30
	LDI  R26,LOW(0)
	JMP  _glcd_puts

;OPTIMIZER ADDED SUBROUTINE, CALLED 4 TIMES, CODE SIZE REDUCTION:24 WORDS
SUBOPT_0x16:
	LDI  R30,LOW(5)
	LDI  R31,HIGH(5)
	ST   -Y,R31
	ST   -Y,R30
	LDI  R30,LOW(0)
	ST   -Y,R30
	LDI  R30,LOW(1)
	ST   -Y,R30
	LDI  R26,LOW(0)
	JMP  _glcd_puts

;OPTIMIZER ADDED SUBROUTINE, CALLED 3 TIMES, CODE SIZE REDUCTION:7 WORDS
SUBOPT_0x17:
	CALL _key
	MOVW R16,R30
	LDI  R30,LOW(1)
	LDI  R31,HIGH(1)
	CP   R30,R16
	CPC  R31,R17
	RET

;OPTIMIZER ADDED SUBROUTINE, CALLED 3 TIMES, CODE SIZE REDUCTION:1 WORDS
SUBOPT_0x18:
	STD  Y+52,R30
	STD  Y+52+1,R31
	RET

;OPTIMIZER ADDED SUBROUTINE, CALLED 45 TIMES, CODE SIZE REDUCTION:85 WORDS
SUBOPT_0x19:
	LDI  R26,LOW(250)
	LDI  R27,0
	JMP  _delay_ms

;OPTIMIZER ADDED SUBROUTINE, CALLED 3 TIMES, CODE SIZE REDUCTION:1 WORDS
SUBOPT_0x1A:
	LDI  R30,LOW(2)
	LDI  R31,HIGH(2)
	CP   R30,R16
	CPC  R31,R17
	RET

;OPTIMIZER ADDED SUBROUTINE, CALLED 3 TIMES, CODE SIZE REDUCTION:1 WORDS
SUBOPT_0x1B:
	LDI  R30,LOW(3)
	LDI  R31,HIGH(3)
	CP   R30,R16
	CPC  R31,R17
	RET

;OPTIMIZER ADDED SUBROUTINE, CALLED 2 TIMES, CODE SIZE REDUCTION:2 WORDS
SUBOPT_0x1C:
	ST   -Y,R27
	ST   -Y,R26
	SBIW R28,63
	SBIW R28,30
	LDI  R24,93
	LDI  R26,LOW(0)
	LDI  R27,HIGH(0)
	RET

;OPTIMIZER ADDED SUBROUTINE, CALLED 2 TIMES, CODE SIZE REDUCTION:4 WORDS
SUBOPT_0x1D:
	ST   -Y,R17
	ST   -Y,R16
	CALL _glcd_clear
	MOVW R30,R28
	SUBI R30,LOW(-(84))
	SBCI R31,HIGH(-(84))
	RJMP SUBOPT_0x12

;OPTIMIZER ADDED SUBROUTINE, CALLED 26 TIMES, CODE SIZE REDUCTION:122 WORDS
SUBOPT_0x1E:
	LDI  R30,LOW(0)
	ST   -Y,R30
	LDI  R30,LOW(1)
	ST   -Y,R30
	LDI  R26,LOW(0)
	JMP  _glcd_puts

;OPTIMIZER ADDED SUBROUTINE, CALLED 2 TIMES, CODE SIZE REDUCTION:1 WORDS
SUBOPT_0x1F:
	LDI  R30,LOW(2)
	LDI  R31,HIGH(2)
	ST   -Y,R31
	ST   -Y,R30
	RJMP SUBOPT_0x1E

;OPTIMIZER ADDED SUBROUTINE, CALLED 2 TIMES, CODE SIZE REDUCTION:1 WORDS
SUBOPT_0x20:
	LDI  R30,LOW(4)
	LDI  R31,HIGH(4)
	ST   -Y,R31
	ST   -Y,R30
	RJMP SUBOPT_0x1E

;OPTIMIZER ADDED SUBROUTINE, CALLED 2 TIMES, CODE SIZE REDUCTION:1 WORDS
SUBOPT_0x21:
	LDI  R30,LOW(6)
	LDI  R31,HIGH(6)
	ST   -Y,R31
	ST   -Y,R30
	RJMP SUBOPT_0x1E

;OPTIMIZER ADDED SUBROUTINE, CALLED 3 TIMES, CODE SIZE REDUCTION:1 WORDS
SUBOPT_0x22:
	MOVW R30,R28
	ADIW R30,7
	RJMP SUBOPT_0x12

;OPTIMIZER ADDED SUBROUTINE, CALLED 2 TIMES, CODE SIZE REDUCTION:1 WORDS
SUBOPT_0x23:
	LDI  R30,LOW(7)
	LDI  R31,HIGH(7)
	ST   -Y,R31
	ST   -Y,R30
	RJMP SUBOPT_0x1E

;OPTIMIZER ADDED SUBROUTINE, CALLED 2 TIMES, CODE SIZE REDUCTION:4 WORDS
SUBOPT_0x24:
	LDI  R30,LOW(1)
	ST   -Y,R30
	ST   -Y,R30
	LDI  R26,LOW(0)
	CALL _glcd_puts
	RJMP SUBOPT_0x17

;OPTIMIZER ADDED SUBROUTINE, CALLED 8 TIMES, CODE SIZE REDUCTION:11 WORDS
SUBOPT_0x25:
	SBIW R28,25
	LDI  R24,25
	LDI  R26,LOW(0)
	LDI  R27,HIGH(0)
	RET

;OPTIMIZER ADDED SUBROUTINE, CALLED 8 TIMES, CODE SIZE REDUCTION:109 WORDS
SUBOPT_0x26:
	MOVW R26,R28
	CALL _puts
	LDI  R30,LOW(12)
	LDI  R31,HIGH(12)
	__PUTW1SX 120
	ADIW R28,25
	RET

;OPTIMIZER ADDED SUBROUTINE, CALLED 2 TIMES, CODE SIZE REDUCTION:8 WORDS
SUBOPT_0x27:
	LDI  R30,LOW(1)
	LDI  R31,HIGH(1)
	__PUTW1SX 95
	RET

;OPTIMIZER ADDED SUBROUTINE, CALLED 8 TIMES, CODE SIZE REDUCTION:11 WORDS
SUBOPT_0x28:
	SBIW R28,39
	LDI  R24,35
	LDI  R26,LOW(0)
	LDI  R27,HIGH(0)
	RET

;OPTIMIZER ADDED SUBROUTINE, CALLED 8 TIMES, CODE SIZE REDUCTION:25 WORDS
SUBOPT_0x29:
	MOVW R26,R28
	ADIW R26,17
	CALL _show_pattern
	RJMP SUBOPT_0x19

;OPTIMIZER ADDED SUBROUTINE, CALLED 8 TIMES, CODE SIZE REDUCTION:25 WORDS
SUBOPT_0x2A:
	CALL _glcd_clear
	MOVW R30,R28
	ADIW R30,13
	RJMP SUBOPT_0x12

;OPTIMIZER ADDED SUBROUTINE, CALLED 8 TIMES, CODE SIZE REDUCTION:67 WORDS
SUBOPT_0x2B:
	CALL _key
	STD  Y+37,R30
	STD  Y+37+1,R31
	MOVW R26,R28
	ADIW R26,17
	ADD  R26,R30
	ADC  R27,R31
	LD   R26,X
	CPI  R26,LOW(0x30)
	RET

;OPTIMIZER ADDED SUBROUTINE, CALLED 16 TIMES, CODE SIZE REDUCTION:57 WORDS
SUBOPT_0x2C:
	LDD  R30,Y+37
	LDD  R31,Y+37+1
	MOVW R26,R28
	ADIW R26,17
	ADD  R26,R30
	ADC  R27,R31
	RET

;OPTIMIZER ADDED SUBROUTINE, CALLED 8 TIMES, CODE SIZE REDUCTION:25 WORDS
SUBOPT_0x2D:
	CALL _glcd_clear
	MOVW R30,R28
	RJMP SUBOPT_0x12

;OPTIMIZER ADDED SUBROUTINE, CALLED 8 TIMES, CODE SIZE REDUCTION:32 WORDS
SUBOPT_0x2E:
	CALL _key
	STD  Y+35,R30
	STD  Y+35+1,R31
	LDD  R26,Y+35
	LDD  R27,Y+35+1
	SBIW R26,1
	RET

;OPTIMIZER ADDED SUBROUTINE, CALLED 2 TIMES, CODE SIZE REDUCTION:7 WORDS
SUBOPT_0x2F:
	LDI  R30,LOW(48)
	STD  Y+34,R30
	STD  Y+35,R30
	STD  Y+36,R30
	STD  Y+37,R30
	STD  Y+38,R30
	STD  Y+39,R30
	RET

;OPTIMIZER ADDED SUBROUTINE, CALLED 64 TIMES, CODE SIZE REDUCTION:249 WORDS
SUBOPT_0x30:
	LDI  R30,LOW(48)
	STD  Y+40,R30
	MOVW R26,R28
	ADIW R26,17
	JMP  _puts

;OPTIMIZER ADDED SUBROUTINE, CALLED 64 TIMES, CODE SIZE REDUCTION:249 WORDS
SUBOPT_0x31:
	LDI  R30,LOW(49)
	STD  Y+40,R30
	MOVW R26,R28
	ADIW R26,17
	JMP  _puts

;OPTIMIZER ADDED SUBROUTINE, CALLED 2 TIMES, CODE SIZE REDUCTION:7 WORDS
SUBOPT_0x32:
	LDI  R30,LOW(48)
	STD  Y+34,R30
	STD  Y+35,R30
	STD  Y+36,R30
	STD  Y+37,R30
	STD  Y+38,R30
	LDI  R30,LOW(49)
	STD  Y+39,R30
	RET

;OPTIMIZER ADDED SUBROUTINE, CALLED 2 TIMES, CODE SIZE REDUCTION:7 WORDS
SUBOPT_0x33:
	LDI  R30,LOW(48)
	STD  Y+34,R30
	STD  Y+35,R30
	STD  Y+36,R30
	STD  Y+37,R30
	LDI  R30,LOW(49)
	STD  Y+38,R30
	LDI  R30,LOW(48)
	STD  Y+39,R30
	RET

;OPTIMIZER ADDED SUBROUTINE, CALLED 2 TIMES, CODE SIZE REDUCTION:7 WORDS
SUBOPT_0x34:
	LDI  R30,LOW(48)
	STD  Y+34,R30
	STD  Y+35,R30
	STD  Y+36,R30
	STD  Y+37,R30
	LDI  R30,LOW(49)
	STD  Y+38,R30
	STD  Y+39,R30
	RET

;OPTIMIZER ADDED SUBROUTINE, CALLED 2 TIMES, CODE SIZE REDUCTION:7 WORDS
SUBOPT_0x35:
	LDI  R30,LOW(48)
	STD  Y+34,R30
	STD  Y+35,R30
	STD  Y+36,R30
	LDI  R30,LOW(49)
	STD  Y+37,R30
	LDI  R30,LOW(48)
	STD  Y+38,R30
	STD  Y+39,R30
	RET

;OPTIMIZER ADDED SUBROUTINE, CALLED 2 TIMES, CODE SIZE REDUCTION:7 WORDS
SUBOPT_0x36:
	LDI  R30,LOW(48)
	STD  Y+34,R30
	STD  Y+35,R30
	STD  Y+36,R30
	LDI  R30,LOW(49)
	STD  Y+37,R30
	LDI  R30,LOW(48)
	STD  Y+38,R30
	LDI  R30,LOW(49)
	STD  Y+39,R30
	RET

;OPTIMIZER ADDED SUBROUTINE, CALLED 2 TIMES, CODE SIZE REDUCTION:7 WORDS
SUBOPT_0x37:
	LDI  R30,LOW(48)
	STD  Y+34,R30
	STD  Y+35,R30
	STD  Y+36,R30
	LDI  R30,LOW(49)
	STD  Y+37,R30
	STD  Y+38,R30
	LDI  R30,LOW(48)
	STD  Y+39,R30
	RET

;OPTIMIZER ADDED SUBROUTINE, CALLED 2 TIMES, CODE SIZE REDUCTION:7 WORDS
SUBOPT_0x38:
	LDI  R30,LOW(48)
	STD  Y+34,R30
	STD  Y+35,R30
	STD  Y+36,R30
	LDI  R30,LOW(49)
	STD  Y+37,R30
	STD  Y+38,R30
	STD  Y+39,R30
	RET

;OPTIMIZER ADDED SUBROUTINE, CALLED 2 TIMES, CODE SIZE REDUCTION:7 WORDS
SUBOPT_0x39:
	LDI  R30,LOW(48)
	STD  Y+34,R30
	STD  Y+35,R30
	LDI  R30,LOW(49)
	STD  Y+36,R30
	LDI  R30,LOW(48)
	STD  Y+37,R30
	STD  Y+38,R30
	STD  Y+39,R30
	RET

;OPTIMIZER ADDED SUBROUTINE, CALLED 2 TIMES, CODE SIZE REDUCTION:7 WORDS
SUBOPT_0x3A:
	LDI  R30,LOW(48)
	STD  Y+34,R30
	STD  Y+35,R30
	LDI  R30,LOW(49)
	STD  Y+36,R30
	LDI  R30,LOW(48)
	STD  Y+37,R30
	STD  Y+38,R30
	LDI  R30,LOW(49)
	STD  Y+39,R30
	RET

;OPTIMIZER ADDED SUBROUTINE, CALLED 2 TIMES, CODE SIZE REDUCTION:7 WORDS
SUBOPT_0x3B:
	LDI  R30,LOW(48)
	STD  Y+34,R30
	STD  Y+35,R30
	LDI  R30,LOW(49)
	STD  Y+36,R30
	LDI  R30,LOW(48)
	STD  Y+37,R30
	LDI  R30,LOW(49)
	STD  Y+38,R30
	LDI  R30,LOW(48)
	STD  Y+39,R30
	RET

;OPTIMIZER ADDED SUBROUTINE, CALLED 2 TIMES, CODE SIZE REDUCTION:7 WORDS
SUBOPT_0x3C:
	LDI  R30,LOW(48)
	STD  Y+34,R30
	STD  Y+35,R30
	LDI  R30,LOW(49)
	STD  Y+36,R30
	LDI  R30,LOW(48)
	STD  Y+37,R30
	LDI  R30,LOW(49)
	STD  Y+38,R30
	STD  Y+39,R30
	RET

;OPTIMIZER ADDED SUBROUTINE, CALLED 2 TIMES, CODE SIZE REDUCTION:7 WORDS
SUBOPT_0x3D:
	LDI  R30,LOW(48)
	STD  Y+34,R30
	STD  Y+35,R30
	LDI  R30,LOW(49)
	STD  Y+36,R30
	STD  Y+37,R30
	LDI  R30,LOW(48)
	STD  Y+38,R30
	STD  Y+39,R30
	RET

;OPTIMIZER ADDED SUBROUTINE, CALLED 2 TIMES, CODE SIZE REDUCTION:7 WORDS
SUBOPT_0x3E:
	LDI  R30,LOW(48)
	STD  Y+34,R30
	STD  Y+35,R30
	LDI  R30,LOW(49)
	STD  Y+36,R30
	STD  Y+37,R30
	LDI  R30,LOW(48)
	STD  Y+38,R30
	LDI  R30,LOW(49)
	STD  Y+39,R30
	RET

;OPTIMIZER ADDED SUBROUTINE, CALLED 2 TIMES, CODE SIZE REDUCTION:7 WORDS
SUBOPT_0x3F:
	LDI  R30,LOW(48)
	STD  Y+34,R30
	STD  Y+35,R30
	LDI  R30,LOW(49)
	STD  Y+36,R30
	STD  Y+37,R30
	STD  Y+38,R30
	LDI  R30,LOW(48)
	STD  Y+39,R30
	RET

;OPTIMIZER ADDED SUBROUTINE, CALLED 2 TIMES, CODE SIZE REDUCTION:7 WORDS
SUBOPT_0x40:
	LDI  R30,LOW(48)
	STD  Y+34,R30
	STD  Y+35,R30
	LDI  R30,LOW(49)
	STD  Y+36,R30
	STD  Y+37,R30
	STD  Y+38,R30
	STD  Y+39,R30
	RET

;OPTIMIZER ADDED SUBROUTINE, CALLED 2 TIMES, CODE SIZE REDUCTION:7 WORDS
SUBOPT_0x41:
	LDI  R30,LOW(48)
	STD  Y+34,R30
	LDI  R30,LOW(49)
	STD  Y+35,R30
	LDI  R30,LOW(48)
	STD  Y+36,R30
	STD  Y+37,R30
	STD  Y+38,R30
	STD  Y+39,R30
	RET

;OPTIMIZER ADDED SUBROUTINE, CALLED 2 TIMES, CODE SIZE REDUCTION:7 WORDS
SUBOPT_0x42:
	LDI  R30,LOW(48)
	STD  Y+34,R30
	LDI  R30,LOW(49)
	STD  Y+35,R30
	LDI  R30,LOW(48)
	STD  Y+36,R30
	STD  Y+37,R30
	STD  Y+38,R30
	LDI  R30,LOW(49)
	STD  Y+39,R30
	RET

;OPTIMIZER ADDED SUBROUTINE, CALLED 2 TIMES, CODE SIZE REDUCTION:7 WORDS
SUBOPT_0x43:
	LDI  R30,LOW(48)
	STD  Y+34,R30
	LDI  R30,LOW(49)
	STD  Y+35,R30
	LDI  R30,LOW(48)
	STD  Y+36,R30
	STD  Y+37,R30
	LDI  R30,LOW(49)
	STD  Y+38,R30
	LDI  R30,LOW(48)
	STD  Y+39,R30
	RET

;OPTIMIZER ADDED SUBROUTINE, CALLED 2 TIMES, CODE SIZE REDUCTION:7 WORDS
SUBOPT_0x44:
	LDI  R30,LOW(48)
	STD  Y+34,R30
	LDI  R30,LOW(49)
	STD  Y+35,R30
	LDI  R30,LOW(48)
	STD  Y+36,R30
	STD  Y+37,R30
	LDI  R30,LOW(49)
	STD  Y+38,R30
	STD  Y+39,R30
	RET

;OPTIMIZER ADDED SUBROUTINE, CALLED 2 TIMES, CODE SIZE REDUCTION:7 WORDS
SUBOPT_0x45:
	LDI  R30,LOW(48)
	STD  Y+34,R30
	LDI  R30,LOW(49)
	STD  Y+35,R30
	LDI  R30,LOW(48)
	STD  Y+36,R30
	LDI  R30,LOW(49)
	STD  Y+37,R30
	LDI  R30,LOW(48)
	STD  Y+38,R30
	STD  Y+39,R30
	RET

;OPTIMIZER ADDED SUBROUTINE, CALLED 2 TIMES, CODE SIZE REDUCTION:7 WORDS
SUBOPT_0x46:
	LDI  R30,LOW(48)
	STD  Y+34,R30
	LDI  R30,LOW(49)
	STD  Y+35,R30
	LDI  R30,LOW(48)
	STD  Y+36,R30
	LDI  R30,LOW(49)
	STD  Y+37,R30
	LDI  R30,LOW(48)
	STD  Y+38,R30
	LDI  R30,LOW(49)
	STD  Y+39,R30
	RET

;OPTIMIZER ADDED SUBROUTINE, CALLED 2 TIMES, CODE SIZE REDUCTION:7 WORDS
SUBOPT_0x47:
	LDI  R30,LOW(48)
	STD  Y+34,R30
	LDI  R30,LOW(49)
	STD  Y+35,R30
	LDI  R30,LOW(48)
	STD  Y+36,R30
	LDI  R30,LOW(49)
	STD  Y+37,R30
	STD  Y+38,R30
	LDI  R30,LOW(48)
	STD  Y+39,R30
	RET

;OPTIMIZER ADDED SUBROUTINE, CALLED 2 TIMES, CODE SIZE REDUCTION:7 WORDS
SUBOPT_0x48:
	LDI  R30,LOW(48)
	STD  Y+34,R30
	LDI  R30,LOW(49)
	STD  Y+35,R30
	LDI  R30,LOW(48)
	STD  Y+36,R30
	LDI  R30,LOW(49)
	STD  Y+37,R30
	STD  Y+38,R30
	STD  Y+39,R30
	RET

;OPTIMIZER ADDED SUBROUTINE, CALLED 2 TIMES, CODE SIZE REDUCTION:7 WORDS
SUBOPT_0x49:
	LDI  R30,LOW(48)
	STD  Y+34,R30
	LDI  R30,LOW(49)
	STD  Y+35,R30
	STD  Y+36,R30
	LDI  R30,LOW(48)
	STD  Y+37,R30
	STD  Y+38,R30
	STD  Y+39,R30
	RET

;OPTIMIZER ADDED SUBROUTINE, CALLED 2 TIMES, CODE SIZE REDUCTION:7 WORDS
SUBOPT_0x4A:
	LDI  R30,LOW(48)
	STD  Y+34,R30
	LDI  R30,LOW(49)
	STD  Y+35,R30
	STD  Y+36,R30
	LDI  R30,LOW(48)
	STD  Y+37,R30
	STD  Y+38,R30
	LDI  R30,LOW(49)
	STD  Y+39,R30
	RET

;OPTIMIZER ADDED SUBROUTINE, CALLED 2 TIMES, CODE SIZE REDUCTION:7 WORDS
SUBOPT_0x4B:
	LDI  R30,LOW(48)
	STD  Y+34,R30
	LDI  R30,LOW(49)
	STD  Y+35,R30
	STD  Y+36,R30
	LDI  R30,LOW(48)
	STD  Y+37,R30
	LDI  R30,LOW(49)
	STD  Y+38,R30
	LDI  R30,LOW(48)
	STD  Y+39,R30
	RET

;OPTIMIZER ADDED SUBROUTINE, CALLED 2 TIMES, CODE SIZE REDUCTION:7 WORDS
SUBOPT_0x4C:
	LDI  R30,LOW(48)
	STD  Y+34,R30
	LDI  R30,LOW(49)
	STD  Y+35,R30
	STD  Y+36,R30
	LDI  R30,LOW(48)
	STD  Y+37,R30
	LDI  R30,LOW(49)
	STD  Y+38,R30
	STD  Y+39,R30
	RET

;OPTIMIZER ADDED SUBROUTINE, CALLED 2 TIMES, CODE SIZE REDUCTION:7 WORDS
SUBOPT_0x4D:
	LDI  R30,LOW(48)
	STD  Y+34,R30
	LDI  R30,LOW(49)
	STD  Y+35,R30
	STD  Y+36,R30
	STD  Y+37,R30
	LDI  R30,LOW(48)
	STD  Y+38,R30
	STD  Y+39,R30
	RET

;OPTIMIZER ADDED SUBROUTINE, CALLED 2 TIMES, CODE SIZE REDUCTION:7 WORDS
SUBOPT_0x4E:
	LDI  R30,LOW(48)
	STD  Y+34,R30
	LDI  R30,LOW(49)
	STD  Y+35,R30
	STD  Y+36,R30
	STD  Y+37,R30
	LDI  R30,LOW(48)
	STD  Y+38,R30
	LDI  R30,LOW(49)
	STD  Y+39,R30
	RET

;OPTIMIZER ADDED SUBROUTINE, CALLED 2 TIMES, CODE SIZE REDUCTION:7 WORDS
SUBOPT_0x4F:
	LDI  R30,LOW(48)
	STD  Y+34,R30
	LDI  R30,LOW(49)
	STD  Y+35,R30
	STD  Y+36,R30
	STD  Y+37,R30
	STD  Y+38,R30
	LDI  R30,LOW(48)
	STD  Y+39,R30
	RET

;OPTIMIZER ADDED SUBROUTINE, CALLED 2 TIMES, CODE SIZE REDUCTION:7 WORDS
SUBOPT_0x50:
	LDI  R30,LOW(48)
	STD  Y+34,R30
	LDI  R30,LOW(49)
	STD  Y+35,R30
	STD  Y+36,R30
	STD  Y+37,R30
	STD  Y+38,R30
	STD  Y+39,R30
	RET

;OPTIMIZER ADDED SUBROUTINE, CALLED 2 TIMES, CODE SIZE REDUCTION:7 WORDS
SUBOPT_0x51:
	LDI  R30,LOW(49)
	STD  Y+34,R30
	LDI  R30,LOW(48)
	STD  Y+35,R30
	STD  Y+36,R30
	STD  Y+37,R30
	STD  Y+38,R30
	STD  Y+39,R30
	RET

;OPTIMIZER ADDED SUBROUTINE, CALLED 2 TIMES, CODE SIZE REDUCTION:7 WORDS
SUBOPT_0x52:
	LDI  R30,LOW(49)
	STD  Y+34,R30
	LDI  R30,LOW(48)
	STD  Y+35,R30
	STD  Y+36,R30
	STD  Y+37,R30
	STD  Y+38,R30
	LDI  R30,LOW(49)
	STD  Y+39,R30
	RET

;OPTIMIZER ADDED SUBROUTINE, CALLED 2 TIMES, CODE SIZE REDUCTION:7 WORDS
SUBOPT_0x53:
	LDI  R30,LOW(49)
	STD  Y+34,R30
	LDI  R30,LOW(48)
	STD  Y+35,R30
	STD  Y+36,R30
	STD  Y+37,R30
	LDI  R30,LOW(49)
	STD  Y+38,R30
	LDI  R30,LOW(48)
	STD  Y+39,R30
	RET

;OPTIMIZER ADDED SUBROUTINE, CALLED 2 TIMES, CODE SIZE REDUCTION:7 WORDS
SUBOPT_0x54:
	LDI  R30,LOW(49)
	STD  Y+34,R30
	LDI  R30,LOW(48)
	STD  Y+35,R30
	STD  Y+36,R30
	STD  Y+37,R30
	LDI  R30,LOW(49)
	STD  Y+38,R30
	STD  Y+39,R30
	RET

;OPTIMIZER ADDED SUBROUTINE, CALLED 2 TIMES, CODE SIZE REDUCTION:7 WORDS
SUBOPT_0x55:
	LDI  R30,LOW(49)
	STD  Y+34,R30
	LDI  R30,LOW(48)
	STD  Y+35,R30
	STD  Y+36,R30
	LDI  R30,LOW(49)
	STD  Y+37,R30
	LDI  R30,LOW(48)
	STD  Y+38,R30
	STD  Y+39,R30
	RET

;OPTIMIZER ADDED SUBROUTINE, CALLED 2 TIMES, CODE SIZE REDUCTION:7 WORDS
SUBOPT_0x56:
	LDI  R30,LOW(49)
	STD  Y+34,R30
	LDI  R30,LOW(48)
	STD  Y+35,R30
	STD  Y+36,R30
	LDI  R30,LOW(49)
	STD  Y+37,R30
	LDI  R30,LOW(48)
	STD  Y+38,R30
	LDI  R30,LOW(49)
	STD  Y+39,R30
	RET

;OPTIMIZER ADDED SUBROUTINE, CALLED 2 TIMES, CODE SIZE REDUCTION:7 WORDS
SUBOPT_0x57:
	LDI  R30,LOW(49)
	STD  Y+34,R30
	LDI  R30,LOW(48)
	STD  Y+35,R30
	STD  Y+36,R30
	LDI  R30,LOW(49)
	STD  Y+37,R30
	STD  Y+38,R30
	LDI  R30,LOW(48)
	STD  Y+39,R30
	RET

;OPTIMIZER ADDED SUBROUTINE, CALLED 2 TIMES, CODE SIZE REDUCTION:7 WORDS
SUBOPT_0x58:
	LDI  R30,LOW(49)
	STD  Y+34,R30
	LDI  R30,LOW(48)
	STD  Y+35,R30
	STD  Y+36,R30
	LDI  R30,LOW(49)
	STD  Y+37,R30
	STD  Y+38,R30
	STD  Y+39,R30
	RET

;OPTIMIZER ADDED SUBROUTINE, CALLED 2 TIMES, CODE SIZE REDUCTION:7 WORDS
SUBOPT_0x59:
	LDI  R30,LOW(49)
	STD  Y+34,R30
	LDI  R30,LOW(48)
	STD  Y+35,R30
	LDI  R30,LOW(49)
	STD  Y+36,R30
	LDI  R30,LOW(48)
	STD  Y+37,R30
	STD  Y+38,R30
	STD  Y+39,R30
	RET

;OPTIMIZER ADDED SUBROUTINE, CALLED 2 TIMES, CODE SIZE REDUCTION:7 WORDS
SUBOPT_0x5A:
	LDI  R30,LOW(49)
	STD  Y+34,R30
	LDI  R30,LOW(48)
	STD  Y+35,R30
	LDI  R30,LOW(49)
	STD  Y+36,R30
	LDI  R30,LOW(48)
	STD  Y+37,R30
	STD  Y+38,R30
	LDI  R30,LOW(49)
	STD  Y+39,R30
	RET

;OPTIMIZER ADDED SUBROUTINE, CALLED 2 TIMES, CODE SIZE REDUCTION:7 WORDS
SUBOPT_0x5B:
	LDI  R30,LOW(49)
	STD  Y+34,R30
	LDI  R30,LOW(48)
	STD  Y+35,R30
	LDI  R30,LOW(49)
	STD  Y+36,R30
	LDI  R30,LOW(48)
	STD  Y+37,R30
	LDI  R30,LOW(49)
	STD  Y+38,R30
	LDI  R30,LOW(48)
	STD  Y+39,R30
	RET

;OPTIMIZER ADDED SUBROUTINE, CALLED 2 TIMES, CODE SIZE REDUCTION:7 WORDS
SUBOPT_0x5C:
	LDI  R30,LOW(49)
	STD  Y+34,R30
	LDI  R30,LOW(48)
	STD  Y+35,R30
	LDI  R30,LOW(49)
	STD  Y+36,R30
	LDI  R30,LOW(48)
	STD  Y+37,R30
	LDI  R30,LOW(49)
	STD  Y+38,R30
	STD  Y+39,R30
	RET

;OPTIMIZER ADDED SUBROUTINE, CALLED 2 TIMES, CODE SIZE REDUCTION:7 WORDS
SUBOPT_0x5D:
	LDI  R30,LOW(49)
	STD  Y+34,R30
	LDI  R30,LOW(48)
	STD  Y+35,R30
	LDI  R30,LOW(49)
	STD  Y+36,R30
	STD  Y+37,R30
	LDI  R30,LOW(48)
	STD  Y+38,R30
	STD  Y+39,R30
	RET

;OPTIMIZER ADDED SUBROUTINE, CALLED 2 TIMES, CODE SIZE REDUCTION:7 WORDS
SUBOPT_0x5E:
	LDI  R30,LOW(49)
	STD  Y+34,R30
	LDI  R30,LOW(48)
	STD  Y+35,R30
	LDI  R30,LOW(49)
	STD  Y+36,R30
	STD  Y+37,R30
	LDI  R30,LOW(48)
	STD  Y+38,R30
	LDI  R30,LOW(49)
	STD  Y+39,R30
	RET

;OPTIMIZER ADDED SUBROUTINE, CALLED 2 TIMES, CODE SIZE REDUCTION:7 WORDS
SUBOPT_0x5F:
	LDI  R30,LOW(49)
	STD  Y+34,R30
	LDI  R30,LOW(48)
	STD  Y+35,R30
	LDI  R30,LOW(49)
	STD  Y+36,R30
	STD  Y+37,R30
	STD  Y+38,R30
	LDI  R30,LOW(48)
	STD  Y+39,R30
	RET

;OPTIMIZER ADDED SUBROUTINE, CALLED 2 TIMES, CODE SIZE REDUCTION:7 WORDS
SUBOPT_0x60:
	LDI  R30,LOW(49)
	STD  Y+34,R30
	LDI  R30,LOW(48)
	STD  Y+35,R30
	LDI  R30,LOW(49)
	STD  Y+36,R30
	STD  Y+37,R30
	STD  Y+38,R30
	STD  Y+39,R30
	RET

;OPTIMIZER ADDED SUBROUTINE, CALLED 2 TIMES, CODE SIZE REDUCTION:7 WORDS
SUBOPT_0x61:
	LDI  R30,LOW(49)
	STD  Y+34,R30
	STD  Y+35,R30
	LDI  R30,LOW(48)
	STD  Y+36,R30
	STD  Y+37,R30
	STD  Y+38,R30
	STD  Y+39,R30
	RET

;OPTIMIZER ADDED SUBROUTINE, CALLED 2 TIMES, CODE SIZE REDUCTION:7 WORDS
SUBOPT_0x62:
	LDI  R30,LOW(49)
	STD  Y+34,R30
	STD  Y+35,R30
	LDI  R30,LOW(48)
	STD  Y+36,R30
	STD  Y+37,R30
	STD  Y+38,R30
	LDI  R30,LOW(49)
	STD  Y+39,R30
	RET

;OPTIMIZER ADDED SUBROUTINE, CALLED 2 TIMES, CODE SIZE REDUCTION:7 WORDS
SUBOPT_0x63:
	LDI  R30,LOW(49)
	STD  Y+34,R30
	STD  Y+35,R30
	LDI  R30,LOW(48)
	STD  Y+36,R30
	STD  Y+37,R30
	LDI  R30,LOW(49)
	STD  Y+38,R30
	LDI  R30,LOW(48)
	STD  Y+39,R30
	RET

;OPTIMIZER ADDED SUBROUTINE, CALLED 2 TIMES, CODE SIZE REDUCTION:7 WORDS
SUBOPT_0x64:
	LDI  R30,LOW(49)
	STD  Y+34,R30
	STD  Y+35,R30
	LDI  R30,LOW(48)
	STD  Y+36,R30
	STD  Y+37,R30
	LDI  R30,LOW(49)
	STD  Y+38,R30
	STD  Y+39,R30
	RET

;OPTIMIZER ADDED SUBROUTINE, CALLED 2 TIMES, CODE SIZE REDUCTION:7 WORDS
SUBOPT_0x65:
	LDI  R30,LOW(49)
	STD  Y+34,R30
	STD  Y+35,R30
	LDI  R30,LOW(48)
	STD  Y+36,R30
	LDI  R30,LOW(49)
	STD  Y+37,R30
	LDI  R30,LOW(48)
	STD  Y+38,R30
	STD  Y+39,R30
	RET

;OPTIMIZER ADDED SUBROUTINE, CALLED 2 TIMES, CODE SIZE REDUCTION:7 WORDS
SUBOPT_0x66:
	LDI  R30,LOW(49)
	STD  Y+34,R30
	STD  Y+35,R30
	LDI  R30,LOW(48)
	STD  Y+36,R30
	LDI  R30,LOW(49)
	STD  Y+37,R30
	LDI  R30,LOW(48)
	STD  Y+38,R30
	LDI  R30,LOW(49)
	STD  Y+39,R30
	RET

;OPTIMIZER ADDED SUBROUTINE, CALLED 2 TIMES, CODE SIZE REDUCTION:7 WORDS
SUBOPT_0x67:
	LDI  R30,LOW(49)
	STD  Y+34,R30
	STD  Y+35,R30
	LDI  R30,LOW(48)
	STD  Y+36,R30
	LDI  R30,LOW(49)
	STD  Y+37,R30
	STD  Y+38,R30
	LDI  R30,LOW(48)
	STD  Y+39,R30
	RET

;OPTIMIZER ADDED SUBROUTINE, CALLED 2 TIMES, CODE SIZE REDUCTION:7 WORDS
SUBOPT_0x68:
	LDI  R30,LOW(49)
	STD  Y+34,R30
	STD  Y+35,R30
	LDI  R30,LOW(48)
	STD  Y+36,R30
	LDI  R30,LOW(49)
	STD  Y+37,R30
	STD  Y+38,R30
	STD  Y+39,R30
	RET

;OPTIMIZER ADDED SUBROUTINE, CALLED 2 TIMES, CODE SIZE REDUCTION:7 WORDS
SUBOPT_0x69:
	LDI  R30,LOW(49)
	STD  Y+34,R30
	STD  Y+35,R30
	STD  Y+36,R30
	LDI  R30,LOW(48)
	STD  Y+37,R30
	STD  Y+38,R30
	STD  Y+39,R30
	RET

;OPTIMIZER ADDED SUBROUTINE, CALLED 2 TIMES, CODE SIZE REDUCTION:7 WORDS
SUBOPT_0x6A:
	LDI  R30,LOW(49)
	STD  Y+34,R30
	STD  Y+35,R30
	STD  Y+36,R30
	LDI  R30,LOW(48)
	STD  Y+37,R30
	STD  Y+38,R30
	LDI  R30,LOW(49)
	STD  Y+39,R30
	RET

;OPTIMIZER ADDED SUBROUTINE, CALLED 2 TIMES, CODE SIZE REDUCTION:7 WORDS
SUBOPT_0x6B:
	LDI  R30,LOW(49)
	STD  Y+34,R30
	STD  Y+35,R30
	STD  Y+36,R30
	LDI  R30,LOW(48)
	STD  Y+37,R30
	LDI  R30,LOW(49)
	STD  Y+38,R30
	LDI  R30,LOW(48)
	STD  Y+39,R30
	RET

;OPTIMIZER ADDED SUBROUTINE, CALLED 2 TIMES, CODE SIZE REDUCTION:7 WORDS
SUBOPT_0x6C:
	LDI  R30,LOW(49)
	STD  Y+34,R30
	STD  Y+35,R30
	STD  Y+36,R30
	LDI  R30,LOW(48)
	STD  Y+37,R30
	LDI  R30,LOW(49)
	STD  Y+38,R30
	STD  Y+39,R30
	RET

;OPTIMIZER ADDED SUBROUTINE, CALLED 2 TIMES, CODE SIZE REDUCTION:7 WORDS
SUBOPT_0x6D:
	LDI  R30,LOW(49)
	STD  Y+34,R30
	STD  Y+35,R30
	STD  Y+36,R30
	STD  Y+37,R30
	LDI  R30,LOW(48)
	STD  Y+38,R30
	STD  Y+39,R30
	RET

;OPTIMIZER ADDED SUBROUTINE, CALLED 2 TIMES, CODE SIZE REDUCTION:7 WORDS
SUBOPT_0x6E:
	LDI  R30,LOW(49)
	STD  Y+34,R30
	STD  Y+35,R30
	STD  Y+36,R30
	STD  Y+37,R30
	LDI  R30,LOW(48)
	STD  Y+38,R30
	LDI  R30,LOW(49)
	STD  Y+39,R30
	RET

;OPTIMIZER ADDED SUBROUTINE, CALLED 2 TIMES, CODE SIZE REDUCTION:7 WORDS
SUBOPT_0x6F:
	LDI  R30,LOW(49)
	STD  Y+34,R30
	STD  Y+35,R30
	STD  Y+36,R30
	STD  Y+37,R30
	STD  Y+38,R30
	LDI  R30,LOW(48)
	STD  Y+39,R30
	RET

;OPTIMIZER ADDED SUBROUTINE, CALLED 2 TIMES, CODE SIZE REDUCTION:7 WORDS
SUBOPT_0x70:
	LDI  R30,LOW(49)
	STD  Y+34,R30
	STD  Y+35,R30
	STD  Y+36,R30
	STD  Y+37,R30
	STD  Y+38,R30
	STD  Y+39,R30
	RET

;OPTIMIZER ADDED SUBROUTINE, CALLED 4 TIMES, CODE SIZE REDUCTION:6 WORDS
SUBOPT_0x71:
	LDD  R26,Y+35
	LDD  R27,Y+35+1
	CPI  R26,LOW(0xFF)
	LDI  R30,HIGH(0xFF)
	CPC  R27,R30
	RET

;OPTIMIZER ADDED SUBROUTINE, CALLED 3 TIMES, CODE SIZE REDUCTION:1 WORDS
SUBOPT_0x72:
	MOV  R26,R19
	CALL _isspace
	CPI  R30,0
	RET

;OPTIMIZER ADDED SUBROUTINE, CALLED 6 TIMES, CODE SIZE REDUCTION:12 WORDS
SUBOPT_0x73:
	LDD  R26,Y+12
	LDD  R27,Y+12+1
	LDD  R30,Y+14
	LDD  R31,Y+14+1
	ICALL
	RET

;OPTIMIZER ADDED SUBROUTINE, CALLED 6 TIMES, CODE SIZE REDUCTION:7 WORDS
SUBOPT_0x74:
	LDD  R26,Y+10
	LDD  R27,Y+10+1
	LD   R26,X
	CPI  R26,0
	RET

;OPTIMIZER ADDED SUBROUTINE, CALLED 3 TIMES, CODE SIZE REDUCTION:13 WORDS
SUBOPT_0x75:
	LDD  R30,Y+14
	LDD  R31,Y+14+1
	SBIW R30,4
	STD  Y+14,R30
	STD  Y+14+1,R31
	LDD  R26,Y+14
	LDD  R27,Y+14+1
	ADIW R26,4
	LD   R16,X+
	LD   R17,X
	RET


	.CSEG
_delay_ms:
	adiw r26,0
	breq __delay_ms1
__delay_ms0:
	__DELAY_USW 0xFA
	wdr
	sbiw r26,1
	brne __delay_ms0
__delay_ms1:
	ret

__ADDW2R15:
	CLR  R0
	ADD  R26,R15
	ADC  R27,R0
	RET

__ANEGW1:
	NEG  R31
	NEG  R30
	SBCI R31,0
	RET

__LSLW3:
	LSL  R30
	ROL  R31
__LSLW2:
	LSL  R30
	ROL  R31
	LSL  R30
	ROL  R31
	RET

__MULW12U:
	MUL  R31,R26
	MOV  R31,R0
	MUL  R30,R27
	ADD  R31,R0
	MUL  R30,R26
	MOV  R30,R0
	ADD  R31,R1
	RET

__MULW12:
	RCALL __CHKSIGNW
	RCALL __MULW12U
	BRTC __MULW121
	RCALL __ANEGW1
__MULW121:
	RET

__CHKSIGNW:
	CLT
	SBRS R31,7
	RJMP __CHKSW1
	RCALL __ANEGW1
	SET
__CHKSW1:
	SBRS R27,7
	RJMP __CHKSW2
	COM  R26
	COM  R27
	ADIW R26,1
	BLD  R0,0
	INC  R0
	BST  R0,0
__CHKSW2:
	RET

__GETW1P:
	LD   R30,X+
	LD   R31,X
	SBIW R26,1
	RET

__PUTPARD1:
	ST   -Y,R23
	ST   -Y,R22
	ST   -Y,R31
	ST   -Y,R30
	RET

__SWAPW12:
	MOV  R1,R27
	MOV  R27,R31
	MOV  R31,R1

__SWAPB12:
	MOV  R1,R26
	MOV  R26,R30
	MOV  R30,R1
	RET

__SAVELOCR6:
	ST   -Y,R21
__SAVELOCR5:
	ST   -Y,R20
__SAVELOCR4:
	ST   -Y,R19
__SAVELOCR3:
	ST   -Y,R18
__SAVELOCR2:
	ST   -Y,R17
	ST   -Y,R16
	RET

__LOADLOCR6:
	LDD  R21,Y+5
__LOADLOCR5:
	LDD  R20,Y+4
__LOADLOCR4:
	LDD  R19,Y+3
__LOADLOCR3:
	LDD  R18,Y+2
__LOADLOCR2:
	LDD  R17,Y+1
	LD   R16,Y
	RET

__INITLOCB:
__INITLOCW:
	ADD  R26,R28
	ADC  R27,R29
__INITLOC0:
	LPM  R0,Z+
	ST   X+,R0
	DEC  R24
	BRNE __INITLOC0
	RET

;END OF CODE MARKER
__END_OF_CODE:
